Archive member included to satisfy reference by file (symbol)

/usr/lib/gcc/arm-none-eabi/10.3.1/../../../arm-none-eabi/lib/thumb/v7e-m+fp/hard/libg.a(lib_a-atexit.o)
                              /usr/lib/gcc/arm-none-eabi/10.3.1/../../../arm-none-eabi/lib/thumb/v7e-m+fp/hard/crt0.o (atexit)
/usr/lib/gcc/arm-none-eabi/10.3.1/../../../arm-none-eabi/lib/thumb/v7e-m+fp/hard/libg.a(lib_a-ctype_.o)
                              build/parser.o (_ctype_)
/usr/lib/gcc/arm-none-eabi/10.3.1/../../../arm-none-eabi/lib/thumb/v7e-m+fp/hard/libg.a(lib_a-errno.o)
                              build/syscall.o (__errno)
/usr/lib/gcc/arm-none-eabi/10.3.1/../../../arm-none-eabi/lib/thumb/v7e-m+fp/hard/libg.a(lib_a-exit.o)
                              /usr/lib/gcc/arm-none-eabi/10.3.1/../../../arm-none-eabi/lib/thumb/v7e-m+fp/hard/crt0.o (exit)
/usr/lib/gcc/arm-none-eabi/10.3.1/../../../arm-none-eabi/lib/thumb/v7e-m+fp/hard/libg.a(lib_a-fini.o)
                              /usr/lib/gcc/arm-none-eabi/10.3.1/../../../arm-none-eabi/lib/thumb/v7e-m+fp/hard/crt0.o (__libc_fini_array)
/usr/lib/gcc/arm-none-eabi/10.3.1/../../../arm-none-eabi/lib/thumb/v7e-m+fp/hard/libg.a(lib_a-impure.o)
                              /usr/lib/gcc/arm-none-eabi/10.3.1/../../../arm-none-eabi/lib/thumb/v7e-m+fp/hard/libg.a(lib_a-exit.o) (_global_impure_ptr)
/usr/lib/gcc/arm-none-eabi/10.3.1/../../../arm-none-eabi/lib/thumb/v7e-m+fp/hard/libg.a(lib_a-init.o)
                              /usr/lib/gcc/arm-none-eabi/10.3.1/../../../arm-none-eabi/lib/thumb/v7e-m+fp/hard/crt0.o (__libc_init_array)
/usr/lib/gcc/arm-none-eabi/10.3.1/../../../arm-none-eabi/lib/thumb/v7e-m+fp/hard/libg.a(lib_a-memset.o)
                              /usr/lib/gcc/arm-none-eabi/10.3.1/../../../arm-none-eabi/lib/thumb/v7e-m+fp/hard/crt0.o (memset)
/usr/lib/gcc/arm-none-eabi/10.3.1/../../../arm-none-eabi/lib/thumb/v7e-m+fp/hard/libg.a(lib_a-printf.o)
                              build/main.o (printf)
/usr/lib/gcc/arm-none-eabi/10.3.1/../../../arm-none-eabi/lib/thumb/v7e-m+fp/hard/libg.a(lib_a-putchar.o)
                              build/parser.o (putchar)
/usr/lib/gcc/arm-none-eabi/10.3.1/../../../arm-none-eabi/lib/thumb/v7e-m+fp/hard/libg.a(lib_a-puts.o)
                              build/main.o (puts)
/usr/lib/gcc/arm-none-eabi/10.3.1/../../../arm-none-eabi/lib/thumb/v7e-m+fp/hard/libg.a(lib_a-setvbuf.o)
                              build/terminal.o (setvbuf)
/usr/lib/gcc/arm-none-eabi/10.3.1/../../../arm-none-eabi/lib/thumb/v7e-m+fp/hard/libg.a(lib_a-strcasecmp.o)
                              build/parser.o (strcasecmp)
/usr/lib/gcc/arm-none-eabi/10.3.1/../../../arm-none-eabi/lib/thumb/v7e-m+fp/hard/libg.a(lib_a-strcpy.o)
                              build/parser.o (strcpy)
/usr/lib/gcc/arm-none-eabi/10.3.1/../../../arm-none-eabi/lib/thumb/v7e-m+fp/hard/libg.a(lib_a-strlen.o)
                              build/parser.o (strlen)
/usr/lib/gcc/arm-none-eabi/10.3.1/../../../arm-none-eabi/lib/thumb/v7e-m+fp/hard/libg.a(lib_a-strtok.o)
                              build/parser.o (strtok)
/usr/lib/gcc/arm-none-eabi/10.3.1/../../../arm-none-eabi/lib/thumb/v7e-m+fp/hard/libg.a(lib_a-strtok_r.o)
                              /usr/lib/gcc/arm-none-eabi/10.3.1/../../../arm-none-eabi/lib/thumb/v7e-m+fp/hard/libg.a(lib_a-strtok.o) (__strtok_r)
/usr/lib/gcc/arm-none-eabi/10.3.1/../../../arm-none-eabi/lib/thumb/v7e-m+fp/hard/libg.a(lib_a-strtol.o)
                              build/parser.o (strtol)
/usr/lib/gcc/arm-none-eabi/10.3.1/../../../arm-none-eabi/lib/thumb/v7e-m+fp/hard/libg.a(lib_a-strtoul.o)
                              build/parser.o (strtoul)
/usr/lib/gcc/arm-none-eabi/10.3.1/../../../arm-none-eabi/lib/thumb/v7e-m+fp/hard/libg.a(lib_a-vfprintf.o)
                              /usr/lib/gcc/arm-none-eabi/10.3.1/../../../arm-none-eabi/lib/thumb/v7e-m+fp/hard/libg.a(lib_a-printf.o) (_vfprintf_r)
/usr/lib/gcc/arm-none-eabi/10.3.1/../../../arm-none-eabi/lib/thumb/v7e-m+fp/hard/libg.a(lib_a-wsetup.o)
                              /usr/lib/gcc/arm-none-eabi/10.3.1/../../../arm-none-eabi/lib/thumb/v7e-m+fp/hard/libg.a(lib_a-vfprintf.o) (__swsetup_r)
/usr/lib/gcc/arm-none-eabi/10.3.1/../../../arm-none-eabi/lib/thumb/v7e-m+fp/hard/libg.a(lib_a-__atexit.o)
                              /usr/lib/gcc/arm-none-eabi/10.3.1/../../../arm-none-eabi/lib/thumb/v7e-m+fp/hard/libg.a(lib_a-atexit.o) (__register_exitproc)
/usr/lib/gcc/arm-none-eabi/10.3.1/../../../arm-none-eabi/lib/thumb/v7e-m+fp/hard/libg.a(lib_a-__call_atexit.o)
                              /usr/lib/gcc/arm-none-eabi/10.3.1/../../../arm-none-eabi/lib/thumb/v7e-m+fp/hard/libg.a(lib_a-exit.o) (__call_exitprocs)
/usr/lib/gcc/arm-none-eabi/10.3.1/../../../arm-none-eabi/lib/thumb/v7e-m+fp/hard/libg.a(lib_a-dtoa.o)
                              /usr/lib/gcc/arm-none-eabi/10.3.1/../../../arm-none-eabi/lib/thumb/v7e-m+fp/hard/libg.a(lib_a-vfprintf.o) (_dtoa_r)
/usr/lib/gcc/arm-none-eabi/10.3.1/../../../arm-none-eabi/lib/thumb/v7e-m+fp/hard/libg.a(lib_a-fflush.o)
                              /usr/lib/gcc/arm-none-eabi/10.3.1/../../../arm-none-eabi/lib/thumb/v7e-m+fp/hard/libg.a(lib_a-setvbuf.o) (_fflush_r)
/usr/lib/gcc/arm-none-eabi/10.3.1/../../../arm-none-eabi/lib/thumb/v7e-m+fp/hard/libg.a(lib_a-findfp.o)
                              /usr/lib/gcc/arm-none-eabi/10.3.1/../../../arm-none-eabi/lib/thumb/v7e-m+fp/hard/libg.a(lib_a-puts.o) (__sinit)
/usr/lib/gcc/arm-none-eabi/10.3.1/../../../arm-none-eabi/lib/thumb/v7e-m+fp/hard/libg.a(lib_a-freer.o)
                              /usr/lib/gcc/arm-none-eabi/10.3.1/../../../arm-none-eabi/lib/thumb/v7e-m+fp/hard/libg.a(lib_a-setvbuf.o) (_free_r)
/usr/lib/gcc/arm-none-eabi/10.3.1/../../../arm-none-eabi/lib/thumb/v7e-m+fp/hard/libg.a(lib_a-fvwrite.o)
                              /usr/lib/gcc/arm-none-eabi/10.3.1/../../../arm-none-eabi/lib/thumb/v7e-m+fp/hard/libg.a(lib_a-puts.o) (__sfvwrite_r)
/usr/lib/gcc/arm-none-eabi/10.3.1/../../../arm-none-eabi/lib/thumb/v7e-m+fp/hard/libg.a(lib_a-fwalk.o)
                              /usr/lib/gcc/arm-none-eabi/10.3.1/../../../arm-none-eabi/lib/thumb/v7e-m+fp/hard/libg.a(lib_a-findfp.o) (_fwalk)
/usr/lib/gcc/arm-none-eabi/10.3.1/../../../arm-none-eabi/lib/thumb/v7e-m+fp/hard/libg.a(lib_a-localeconv.o)
                              /usr/lib/gcc/arm-none-eabi/10.3.1/../../../arm-none-eabi/lib/thumb/v7e-m+fp/hard/libg.a(lib_a-vfprintf.o) (_localeconv_r)
/usr/lib/gcc/arm-none-eabi/10.3.1/../../../arm-none-eabi/lib/thumb/v7e-m+fp/hard/libg.a(lib_a-makebuf.o)
                              /usr/lib/gcc/arm-none-eabi/10.3.1/../../../arm-none-eabi/lib/thumb/v7e-m+fp/hard/libg.a(lib_a-wsetup.o) (__smakebuf_r)
/usr/lib/gcc/arm-none-eabi/10.3.1/../../../arm-none-eabi/lib/thumb/v7e-m+fp/hard/libg.a(lib_a-malloc.o)
                              /usr/lib/gcc/arm-none-eabi/10.3.1/../../../arm-none-eabi/lib/thumb/v7e-m+fp/hard/libg.a(lib_a-setvbuf.o) (malloc)
/usr/lib/gcc/arm-none-eabi/10.3.1/../../../arm-none-eabi/lib/thumb/v7e-m+fp/hard/libg.a(lib_a-mallocr.o)
                              /usr/lib/gcc/arm-none-eabi/10.3.1/../../../arm-none-eabi/lib/thumb/v7e-m+fp/hard/libg.a(lib_a-findfp.o) (_malloc_r)
/usr/lib/gcc/arm-none-eabi/10.3.1/../../../arm-none-eabi/lib/thumb/v7e-m+fp/hard/libg.a(lib_a-memchr.o)
                              /usr/lib/gcc/arm-none-eabi/10.3.1/../../../arm-none-eabi/lib/thumb/v7e-m+fp/hard/libg.a(lib_a-vfprintf.o) (memchr)
/usr/lib/gcc/arm-none-eabi/10.3.1/../../../arm-none-eabi/lib/thumb/v7e-m+fp/hard/libg.a(lib_a-memcpy.o)
                              /usr/lib/gcc/arm-none-eabi/10.3.1/../../../arm-none-eabi/lib/thumb/v7e-m+fp/hard/libg.a(lib_a-dtoa.o) (memcpy)
/usr/lib/gcc/arm-none-eabi/10.3.1/../../../arm-none-eabi/lib/thumb/v7e-m+fp/hard/libg.a(lib_a-memmove.o)
                              /usr/lib/gcc/arm-none-eabi/10.3.1/../../../arm-none-eabi/lib/thumb/v7e-m+fp/hard/libg.a(lib_a-fvwrite.o) (memmove)
/usr/lib/gcc/arm-none-eabi/10.3.1/../../../arm-none-eabi/lib/thumb/v7e-m+fp/hard/libg.a(lib_a-mlock.o)
                              /usr/lib/gcc/arm-none-eabi/10.3.1/../../../arm-none-eabi/lib/thumb/v7e-m+fp/hard/libg.a(lib_a-freer.o) (__malloc_lock)
/usr/lib/gcc/arm-none-eabi/10.3.1/../../../arm-none-eabi/lib/thumb/v7e-m+fp/hard/libg.a(lib_a-mprec.o)
                              /usr/lib/gcc/arm-none-eabi/10.3.1/../../../arm-none-eabi/lib/thumb/v7e-m+fp/hard/libg.a(lib_a-dtoa.o) (_Balloc)
/usr/lib/gcc/arm-none-eabi/10.3.1/../../../arm-none-eabi/lib/thumb/v7e-m+fp/hard/libg.a(lib_a-putc.o)
                              /usr/lib/gcc/arm-none-eabi/10.3.1/../../../arm-none-eabi/lib/thumb/v7e-m+fp/hard/libg.a(lib_a-putchar.o) (_putc_r)
/usr/lib/gcc/arm-none-eabi/10.3.1/../../../arm-none-eabi/lib/thumb/v7e-m+fp/hard/libg.a(lib_a-reallocr.o)
                              /usr/lib/gcc/arm-none-eabi/10.3.1/../../../arm-none-eabi/lib/thumb/v7e-m+fp/hard/libg.a(lib_a-fvwrite.o) (_realloc_r)
/usr/lib/gcc/arm-none-eabi/10.3.1/../../../arm-none-eabi/lib/thumb/v7e-m+fp/hard/libg.a(lib_a-stdio.o)
                              /usr/lib/gcc/arm-none-eabi/10.3.1/../../../arm-none-eabi/lib/thumb/v7e-m+fp/hard/libg.a(lib_a-findfp.o) (__sread)
/usr/lib/gcc/arm-none-eabi/10.3.1/../../../arm-none-eabi/lib/thumb/v7e-m+fp/hard/libg.a(lib_a-vfiprintf.o)
                              /usr/lib/gcc/arm-none-eabi/10.3.1/../../../arm-none-eabi/lib/thumb/v7e-m+fp/hard/libg.a(lib_a-vfprintf.o) (__sprint_r)
/usr/lib/gcc/arm-none-eabi/10.3.1/../../../arm-none-eabi/lib/thumb/v7e-m+fp/hard/libg.a(lib_a-wbuf.o)
                              /usr/lib/gcc/arm-none-eabi/10.3.1/../../../arm-none-eabi/lib/thumb/v7e-m+fp/hard/libg.a(lib_a-putc.o) (__swbuf_r)
/usr/lib/gcc/arm-none-eabi/10.3.1/../../../arm-none-eabi/lib/thumb/v7e-m+fp/hard/libg.a(lib_a-assert.o)
                              /usr/lib/gcc/arm-none-eabi/10.3.1/../../../arm-none-eabi/lib/thumb/v7e-m+fp/hard/libg.a(lib_a-dtoa.o) (__assert_func)
/usr/lib/gcc/arm-none-eabi/10.3.1/../../../arm-none-eabi/lib/thumb/v7e-m+fp/hard/libg.a(lib_a-callocr.o)
                              /usr/lib/gcc/arm-none-eabi/10.3.1/../../../arm-none-eabi/lib/thumb/v7e-m+fp/hard/libg.a(lib_a-mprec.o) (_calloc_r)
/usr/lib/gcc/arm-none-eabi/10.3.1/../../../arm-none-eabi/lib/thumb/v7e-m+fp/hard/libg.a(lib_a-fclose.o)
                              /usr/lib/gcc/arm-none-eabi/10.3.1/../../../arm-none-eabi/lib/thumb/v7e-m+fp/hard/libg.a(lib_a-findfp.o) (_fclose_r)
/usr/lib/gcc/arm-none-eabi/10.3.1/../../../arm-none-eabi/lib/thumb/v7e-m+fp/hard/libg.a(lib_a-fiprintf.o)
                              /usr/lib/gcc/arm-none-eabi/10.3.1/../../../arm-none-eabi/lib/thumb/v7e-m+fp/hard/libg.a(lib_a-assert.o) (fiprintf)
/usr/lib/gcc/arm-none-eabi/10.3.1/../../../arm-none-eabi/lib/thumb/v7e-m+fp/hard/libg.a(lib_a-fputwc.o)
                              /usr/lib/gcc/arm-none-eabi/10.3.1/../../../arm-none-eabi/lib/thumb/v7e-m+fp/hard/libg.a(lib_a-vfiprintf.o) (_fputwc_r)
/usr/lib/gcc/arm-none-eabi/10.3.1/../../../arm-none-eabi/lib/thumb/v7e-m+fp/hard/libg.a(lib_a-locale.o)
                              /usr/lib/gcc/arm-none-eabi/10.3.1/../../../arm-none-eabi/lib/thumb/v7e-m+fp/hard/libg.a(lib_a-fputwc.o) (__locale_mb_cur_max)
/usr/lib/gcc/arm-none-eabi/10.3.1/../../../arm-none-eabi/lib/thumb/v7e-m+fp/hard/libg.a(lib_a-mbtowc_r.o)
                              /usr/lib/gcc/arm-none-eabi/10.3.1/../../../arm-none-eabi/lib/thumb/v7e-m+fp/hard/libg.a(lib_a-locale.o) (__ascii_mbtowc)
/usr/lib/gcc/arm-none-eabi/10.3.1/../../../arm-none-eabi/lib/thumb/v7e-m+fp/hard/libg.a(lib_a-strcmp.o)
                              /usr/lib/gcc/arm-none-eabi/10.3.1/../../../arm-none-eabi/lib/thumb/v7e-m+fp/hard/libg.a(lib_a-locale.o) (strcmp)
/usr/lib/gcc/arm-none-eabi/10.3.1/../../../arm-none-eabi/lib/thumb/v7e-m+fp/hard/libg.a(lib_a-wcrtomb.o)
                              /usr/lib/gcc/arm-none-eabi/10.3.1/../../../arm-none-eabi/lib/thumb/v7e-m+fp/hard/libg.a(lib_a-fputwc.o) (_wcrtomb_r)
/usr/lib/gcc/arm-none-eabi/10.3.1/../../../arm-none-eabi/lib/thumb/v7e-m+fp/hard/libg.a(lib_a-wctomb_r.o)
                              /usr/lib/gcc/arm-none-eabi/10.3.1/../../../arm-none-eabi/lib/thumb/v7e-m+fp/hard/libg.a(lib_a-locale.o) (__ascii_wctomb)
/usr/lib/gcc/arm-none-eabi/10.3.1/../../../arm-none-eabi/lib/thumb/v7e-m+fp/hard/libg.a(lib_a-abort.o)
                              /usr/lib/gcc/arm-none-eabi/10.3.1/../../../arm-none-eabi/lib/thumb/v7e-m+fp/hard/libg.a(lib_a-assert.o) (abort)
/usr/lib/gcc/arm-none-eabi/10.3.1/../../../arm-none-eabi/lib/thumb/v7e-m+fp/hard/libg.a(lib_a-signal.o)
                              /usr/lib/gcc/arm-none-eabi/10.3.1/../../../arm-none-eabi/lib/thumb/v7e-m+fp/hard/libg.a(lib_a-abort.o) (raise)
/usr/lib/gcc/arm-none-eabi/10.3.1/../../../arm-none-eabi/lib/thumb/v7e-m+fp/hard/libg.a(lib_a-signalr.o)
                              /usr/lib/gcc/arm-none-eabi/10.3.1/../../../arm-none-eabi/lib/thumb/v7e-m+fp/hard/libg.a(lib_a-signal.o) (_kill_r)
/usr/lib/gcc/arm-none-eabi/10.3.1/../../../arm-none-eabi/lib/thumb/v7e-m+fp/hard/libg.a(lib_a-reent.o)
                              /usr/lib/gcc/arm-none-eabi/10.3.1/../../../arm-none-eabi/lib/thumb/v7e-m+fp/hard/libg.a(lib_a-signalr.o) (errno)
/usr/lib/gcc/arm-none-eabi/10.3.1/thumb/v7e-m+fp/hard/libgcc.a(_arm_muldf3.o)
                              /usr/lib/gcc/arm-none-eabi/10.3.1/../../../arm-none-eabi/lib/thumb/v7e-m+fp/hard/libg.a(lib_a-dtoa.o) (__aeabi_dmul)
/usr/lib/gcc/arm-none-eabi/10.3.1/thumb/v7e-m+fp/hard/libgcc.a(_arm_addsubdf3.o)
                              /usr/lib/gcc/arm-none-eabi/10.3.1/../../../arm-none-eabi/lib/thumb/v7e-m+fp/hard/libg.a(lib_a-dtoa.o) (__aeabi_dsub)
/usr/lib/gcc/arm-none-eabi/10.3.1/thumb/v7e-m+fp/hard/libgcc.a(_arm_muldivdf3.o)
                              /usr/lib/gcc/arm-none-eabi/10.3.1/../../../arm-none-eabi/lib/thumb/v7e-m+fp/hard/libg.a(lib_a-dtoa.o) (__aeabi_ddiv)
/usr/lib/gcc/arm-none-eabi/10.3.1/thumb/v7e-m+fp/hard/libgcc.a(_arm_cmpdf2.o)
                              /usr/lib/gcc/arm-none-eabi/10.3.1/../../../arm-none-eabi/lib/thumb/v7e-m+fp/hard/libg.a(lib_a-vfprintf.o) (__aeabi_dcmpeq)
/usr/lib/gcc/arm-none-eabi/10.3.1/thumb/v7e-m+fp/hard/libgcc.a(_arm_unorddf2.o)
                              /usr/lib/gcc/arm-none-eabi/10.3.1/../../../arm-none-eabi/lib/thumb/v7e-m+fp/hard/libg.a(lib_a-vfprintf.o) (__aeabi_dcmpun)
/usr/lib/gcc/arm-none-eabi/10.3.1/thumb/v7e-m+fp/hard/libgcc.a(_arm_fixdfsi.o)
                              /usr/lib/gcc/arm-none-eabi/10.3.1/../../../arm-none-eabi/lib/thumb/v7e-m+fp/hard/libg.a(lib_a-dtoa.o) (__aeabi_d2iz)
/usr/lib/gcc/arm-none-eabi/10.3.1/thumb/v7e-m+fp/hard/libgcc.a(_aeabi_uldivmod.o)
                              /usr/lib/gcc/arm-none-eabi/10.3.1/../../../arm-none-eabi/lib/thumb/v7e-m+fp/hard/libg.a(lib_a-vfprintf.o) (__aeabi_uldivmod)
/usr/lib/gcc/arm-none-eabi/10.3.1/thumb/v7e-m+fp/hard/libgcc.a(_udivmoddi4.o)
                              /usr/lib/gcc/arm-none-eabi/10.3.1/thumb/v7e-m+fp/hard/libgcc.a(_aeabi_uldivmod.o) (__udivmoddi4)
/usr/lib/gcc/arm-none-eabi/10.3.1/thumb/v7e-m+fp/hard/libgcc.a(_dvmd_tls.o)
                              /usr/lib/gcc/arm-none-eabi/10.3.1/thumb/v7e-m+fp/hard/libgcc.a(_aeabi_uldivmod.o) (__aeabi_ldiv0)
/usr/lib/gcc/arm-none-eabi/10.3.1/../../../arm-none-eabi/lib/thumb/v7e-m+fp/hard/libnosys.a(getpid.o)
                              /usr/lib/gcc/arm-none-eabi/10.3.1/../../../arm-none-eabi/lib/thumb/v7e-m+fp/hard/libg.a(lib_a-signalr.o) (_getpid)
/usr/lib/gcc/arm-none-eabi/10.3.1/../../../arm-none-eabi/lib/thumb/v7e-m+fp/hard/libnosys.a(kill.o)
                              /usr/lib/gcc/arm-none-eabi/10.3.1/../../../arm-none-eabi/lib/thumb/v7e-m+fp/hard/libg.a(lib_a-signalr.o) (_kill)
/usr/lib/gcc/arm-none-eabi/10.3.1/../../../arm-none-eabi/lib/thumb/v7e-m+fp/hard/libnosys.a(_exit.o)
                              /usr/lib/gcc/arm-none-eabi/10.3.1/../../../arm-none-eabi/lib/thumb/v7e-m+fp/hard/libg.a(lib_a-exit.o) (_exit)

Discarded input sections

 .text          0x0000000000000000        0x0 /usr/lib/gcc/arm-none-eabi/10.3.1/thumb/v7e-m+fp/hard/crti.o
 .data          0x0000000000000000        0x0 /usr/lib/gcc/arm-none-eabi/10.3.1/thumb/v7e-m+fp/hard/crti.o
 .bss           0x0000000000000000        0x0 /usr/lib/gcc/arm-none-eabi/10.3.1/thumb/v7e-m+fp/hard/crti.o
 .data          0x0000000000000000        0x4 /usr/lib/gcc/arm-none-eabi/10.3.1/thumb/v7e-m+fp/hard/crtbegin.o
 .rodata        0x0000000000000000       0x24 /usr/lib/gcc/arm-none-eabi/10.3.1/thumb/v7e-m+fp/hard/crtbegin.o
 .text          0x0000000000000000       0x70 /usr/lib/gcc/arm-none-eabi/10.3.1/../../../arm-none-eabi/lib/thumb/v7e-m+fp/hard/crt0.o
 .data          0x0000000000000000        0x0 /usr/lib/gcc/arm-none-eabi/10.3.1/../../../arm-none-eabi/lib/thumb/v7e-m+fp/hard/crt0.o
 .bss           0x0000000000000000        0x0 /usr/lib/gcc/arm-none-eabi/10.3.1/../../../arm-none-eabi/lib/thumb/v7e-m+fp/hard/crt0.o
 .ARM.extab     0x0000000000000000        0x0 /usr/lib/gcc/arm-none-eabi/10.3.1/../../../arm-none-eabi/lib/thumb/v7e-m+fp/hard/crt0.o
 .ARM.exidx     0x0000000000000000       0x10 /usr/lib/gcc/arm-none-eabi/10.3.1/../../../arm-none-eabi/lib/thumb/v7e-m+fp/hard/crt0.o
 .debug_line    0x0000000000000000       0x87 /usr/lib/gcc/arm-none-eabi/10.3.1/../../../arm-none-eabi/lib/thumb/v7e-m+fp/hard/crt0.o
 .debug_info    0x0000000000000000       0x26 /usr/lib/gcc/arm-none-eabi/10.3.1/../../../arm-none-eabi/lib/thumb/v7e-m+fp/hard/crt0.o
 .debug_abbrev  0x0000000000000000       0x14 /usr/lib/gcc/arm-none-eabi/10.3.1/../../../arm-none-eabi/lib/thumb/v7e-m+fp/hard/crt0.o
 .debug_aranges
                0x0000000000000000       0x20 /usr/lib/gcc/arm-none-eabi/10.3.1/../../../arm-none-eabi/lib/thumb/v7e-m+fp/hard/crt0.o
 .debug_str     0x0000000000000000       0x98 /usr/lib/gcc/arm-none-eabi/10.3.1/../../../arm-none-eabi/lib/thumb/v7e-m+fp/hard/crt0.o
 .ARM.attributes
                0x0000000000000000       0x1c /usr/lib/gcc/arm-none-eabi/10.3.1/../../../arm-none-eabi/lib/thumb/v7e-m+fp/hard/crt0.o
 .text          0x0000000000000000        0x0 build/main.o
 .data          0x0000000000000000        0x0 build/main.o
 .bss           0x0000000000000000        0x0 build/main.o
 .rodata.numLEDs
                0x0000000000000000        0x4 build/main.o
 .bss           0x0000000000000000        0x0 build/mycode.o
 .text          0x0000000000000000        0x0 build/mytest.o
 .data          0x0000000000000000        0x0 build/mytest.o
 .bss           0x0000000000000000        0x0 build/mytest.o
 .text          0x0000000000000000        0x0 build/mes/pt_hook.o
 .data          0x0000000000000000        0x0 build/mes/pt_hook.o
 .bss           0x0000000000000000        0x0 build/mes/pt_hook.o
 .bss           0x0000000000000000        0x0 build/mes/pt_asm.o
 .text          0x0000000000000000        0x0 build/monitor.o
 .data          0x0000000000000000        0x0 build/monitor.o
 .bss           0x0000000000000000        0x0 build/monitor.o
 .text          0x0000000000000000        0x0 build/parser.o
 .data          0x0000000000000000        0x0 build/parser.o
 .bss           0x0000000000000000        0x0 build/parser.o
 .text.fetch_int32_arg
                0x0000000000000000       0x28 build/parser.o
 .text          0x0000000000000000        0x0 build/dump.o
 .data          0x0000000000000000        0x0 build/dump.o
 .bss           0x0000000000000000        0x0 build/dump.o
 .text          0x0000000000000000        0x0 build/syscall.o
 .data          0x0000000000000000        0x0 build/syscall.o
 .bss           0x0000000000000000        0x0 build/syscall.o
 .text          0x0000000000000000        0x0 build/terminal.o
 .data          0x0000000000000000        0x0 build/terminal.o
 .bss           0x0000000000000000        0x0 build/terminal.o
 .text          0x0000000000000000        0x0 build/decoder/decoder.o
 .data          0x0000000000000000        0x0 build/decoder/decoder.o
 .bss           0x0000000000000000        0x0 build/decoder/decoder.o
 .text          0x0000000000000000        0x0 build/decoder/STM32F30x_decoder.o
 .data          0x0000000000000000        0x0 build/decoder/STM32F30x_decoder.o
 .bss           0x0000000000000000        0x0 build/decoder/STM32F30x_decoder.o
 .text          0x0000000000000000        0x0 build/Drivers/CMSIS/Device/ST/STM32F3xx/Source/Templates/system_stm32f3xx.o
 .data          0x0000000000000000        0x0 build/Drivers/CMSIS/Device/ST/STM32F3xx/Source/Templates/system_stm32f3xx.o
 .bss           0x0000000000000000        0x0 build/Drivers/CMSIS/Device/ST/STM32F3xx/Source/Templates/system_stm32f3xx.o
 .text.SystemCoreClockUpdate
                0x0000000000000000       0x60 build/Drivers/CMSIS/Device/ST/STM32F3xx/Source/Templates/system_stm32f3xx.o
 .data.AHBPrescTable
                0x0000000000000000       0x10 build/Drivers/CMSIS/Device/ST/STM32F3xx/Source/Templates/system_stm32f3xx.o
 .text          0x0000000000000000        0x0 build/Drivers/STM32F3xx_HAL_Driver/Src/stm32f3xx_hal_rcc.o
 .data          0x0000000000000000        0x0 build/Drivers/STM32F3xx_HAL_Driver/Src/stm32f3xx_hal_rcc.o
 .bss           0x0000000000000000        0x0 build/Drivers/STM32F3xx_HAL_Driver/Src/stm32f3xx_hal_rcc.o
 .text.HAL_RCC_DeInit
                0x0000000000000000       0x3c build/Drivers/STM32F3xx_HAL_Driver/Src/stm32f3xx_hal_rcc.o
 .text.HAL_RCC_MCOConfig
                0x0000000000000000       0x40 build/Drivers/STM32F3xx_HAL_Driver/Src/stm32f3xx_hal_rcc.o
 .text.HAL_RCC_EnableCSS
                0x0000000000000000        0xc build/Drivers/STM32F3xx_HAL_Driver/Src/stm32f3xx_hal_rcc.o
 .text.HAL_RCC_DisableCSS
                0x0000000000000000        0xc build/Drivers/STM32F3xx_HAL_Driver/Src/stm32f3xx_hal_rcc.o
 .text.HAL_RCC_GetPCLK1Freq
                0x0000000000000000       0x30 build/Drivers/STM32F3xx_HAL_Driver/Src/stm32f3xx_hal_rcc.o
 .text.HAL_RCC_GetPCLK2Freq
                0x0000000000000000       0x30 build/Drivers/STM32F3xx_HAL_Driver/Src/stm32f3xx_hal_rcc.o
 .text.HAL_RCC_GetOscConfig
                0x0000000000000000       0x80 build/Drivers/STM32F3xx_HAL_Driver/Src/stm32f3xx_hal_rcc.o
 .text.HAL_RCC_GetClockConfig
                0x0000000000000000       0x3c build/Drivers/STM32F3xx_HAL_Driver/Src/stm32f3xx_hal_rcc.o
 .text.HAL_RCC_CCSCallback
                0x0000000000000000        0x2 build/Drivers/STM32F3xx_HAL_Driver/Src/stm32f3xx_hal_rcc.o
 .text.HAL_RCC_NMI_IRQHandler
                0x0000000000000000       0x18 build/Drivers/STM32F3xx_HAL_Driver/Src/stm32f3xx_hal_rcc.o
 .text          0x0000000000000000        0x0 build/Drivers/STM32F3xx_HAL_Driver/Src/stm32f3xx_hal.o
 .data          0x0000000000000000        0x0 build/Drivers/STM32F3xx_HAL_Driver/Src/stm32f3xx_hal.o
 .bss           0x0000000000000000        0x0 build/Drivers/STM32F3xx_HAL_Driver/Src/stm32f3xx_hal.o
 .text.HAL_MspDeInit
                0x0000000000000000        0x2 build/Drivers/STM32F3xx_HAL_Driver/Src/stm32f3xx_hal.o
 .text.HAL_DeInit
                0x0000000000000000       0x24 build/Drivers/STM32F3xx_HAL_Driver/Src/stm32f3xx_hal.o
 .text.HAL_SuspendTick
                0x0000000000000000        0xe build/Drivers/STM32F3xx_HAL_Driver/Src/stm32f3xx_hal.o
 .text.HAL_ResumeTick
                0x0000000000000000        0xe build/Drivers/STM32F3xx_HAL_Driver/Src/stm32f3xx_hal.o
 .text.HAL_GetHalVersion
                0x0000000000000000        0x6 build/Drivers/STM32F3xx_HAL_Driver/Src/stm32f3xx_hal.o
 .text.HAL_GetREVID
                0x0000000000000000        0xc build/Drivers/STM32F3xx_HAL_Driver/Src/stm32f3xx_hal.o
 .text.HAL_GetDEVID
                0x0000000000000000       0x10 build/Drivers/STM32F3xx_HAL_Driver/Src/stm32f3xx_hal.o
 .text.HAL_EnableDBGSleepMode
                0x0000000000000000       0x10 build/Drivers/STM32F3xx_HAL_Driver/Src/stm32f3xx_hal.o
 .text.HAL_DisableDBGSleepMode
                0x0000000000000000       0x10 build/Drivers/STM32F3xx_HAL_Driver/Src/stm32f3xx_hal.o
 .text.HAL_EnableDBGStopMode
                0x0000000000000000       0x10 build/Drivers/STM32F3xx_HAL_Driver/Src/stm32f3xx_hal.o
 .text.HAL_DisableDBGStopMode
                0x0000000000000000       0x10 build/Drivers/STM32F3xx_HAL_Driver/Src/stm32f3xx_hal.o
 .text.HAL_EnableDBGStandbyMode
                0x0000000000000000       0x10 build/Drivers/STM32F3xx_HAL_Driver/Src/stm32f3xx_hal.o
 .text.HAL_DisableDBGStandbyMode
                0x0000000000000000       0x10 build/Drivers/STM32F3xx_HAL_Driver/Src/stm32f3xx_hal.o
 .text          0x0000000000000000        0x0 build/Drivers/STM32F3xx_HAL_Driver/Src/stm32f3xx_hal_cortex.o
 .data          0x0000000000000000        0x0 build/Drivers/STM32F3xx_HAL_Driver/Src/stm32f3xx_hal_cortex.o
 .bss           0x0000000000000000        0x0 build/Drivers/STM32F3xx_HAL_Driver/Src/stm32f3xx_hal_cortex.o
 .text.HAL_NVIC_DisableIRQ
                0x0000000000000000       0x1c build/Drivers/STM32F3xx_HAL_Driver/Src/stm32f3xx_hal_cortex.o
 .text.HAL_NVIC_SystemReset
                0x0000000000000000       0x20 build/Drivers/STM32F3xx_HAL_Driver/Src/stm32f3xx_hal_cortex.o
 .text.HAL_NVIC_GetPriorityGrouping
                0x0000000000000000       0x10 build/Drivers/STM32F3xx_HAL_Driver/Src/stm32f3xx_hal_cortex.o
 .text.HAL_NVIC_GetPriority
                0x0000000000000000       0x58 build/Drivers/STM32F3xx_HAL_Driver/Src/stm32f3xx_hal_cortex.o
 .text.HAL_NVIC_SetPendingIRQ
                0x0000000000000000       0x1c build/Drivers/STM32F3xx_HAL_Driver/Src/stm32f3xx_hal_cortex.o
 .text.HAL_NVIC_GetPendingIRQ
                0x0000000000000000       0x24 build/Drivers/STM32F3xx_HAL_Driver/Src/stm32f3xx_hal_cortex.o
 .text.HAL_NVIC_ClearPendingIRQ
                0x0000000000000000       0x1c build/Drivers/STM32F3xx_HAL_Driver/Src/stm32f3xx_hal_cortex.o
 .text.HAL_NVIC_GetActive
                0x0000000000000000       0x24 build/Drivers/STM32F3xx_HAL_Driver/Src/stm32f3xx_hal_cortex.o
 .text.HAL_SYSTICK_CLKSourceConfig
                0x0000000000000000       0x16 build/Drivers/STM32F3xx_HAL_Driver/Src/stm32f3xx_hal_cortex.o
 .text.HAL_SYSTICK_Callback
                0x0000000000000000        0x2 build/Drivers/STM32F3xx_HAL_Driver/Src/stm32f3xx_hal_cortex.o
 .text.HAL_SYSTICK_IRQHandler
                0x0000000000000000        0x8 build/Drivers/STM32F3xx_HAL_Driver/Src/stm32f3xx_hal_cortex.o
 .text          0x0000000000000000        0x0 build/Drivers/STM32F3xx_HAL_Driver/Src/stm32f3xx_hal_uart.o
 .data          0x0000000000000000        0x0 build/Drivers/STM32F3xx_HAL_Driver/Src/stm32f3xx_hal_uart.o
 .bss           0x0000000000000000        0x0 build/Drivers/STM32F3xx_HAL_Driver/Src/stm32f3xx_hal_uart.o
 .text.HAL_UART_MspInit
                0x0000000000000000        0x2 build/Drivers/STM32F3xx_HAL_Driver/Src/stm32f3xx_hal_uart.o
 .text.HAL_UART_MspDeInit
                0x0000000000000000        0x2 build/Drivers/STM32F3xx_HAL_Driver/Src/stm32f3xx_hal_uart.o
 .text.HAL_UART_DeInit
                0x0000000000000000       0x32 build/Drivers/STM32F3xx_HAL_Driver/Src/stm32f3xx_hal_uart.o
 .text.HAL_UART_Transmit_IT
                0x0000000000000000       0x58 build/Drivers/STM32F3xx_HAL_Driver/Src/stm32f3xx_hal_uart.o
 .text.HAL_UART_Receive_IT
                0x0000000000000000       0x8a build/Drivers/STM32F3xx_HAL_Driver/Src/stm32f3xx_hal_uart.o
 .text.HAL_UART_Transmit_DMA
                0x0000000000000000       0x80 build/Drivers/STM32F3xx_HAL_Driver/Src/stm32f3xx_hal_uart.o
 .text.HAL_UART_Receive_DMA
                0x0000000000000000       0x80 build/Drivers/STM32F3xx_HAL_Driver/Src/stm32f3xx_hal_uart.o
 .text.HAL_UART_DMAPause
                0x0000000000000000       0x54 build/Drivers/STM32F3xx_HAL_Driver/Src/stm32f3xx_hal_uart.o
 .text.HAL_UART_DMAStop
                0x0000000000000000       0x4e build/Drivers/STM32F3xx_HAL_Driver/Src/stm32f3xx_hal_uart.o
 .text.UART_WaitOnFlagUntilTimeout
                0x0000000000000000       0x82 build/Drivers/STM32F3xx_HAL_Driver/Src/stm32f3xx_hal_uart.o
 .text.HAL_UART_Transmit
                0x0000000000000000       0xb0 build/Drivers/STM32F3xx_HAL_Driver/Src/stm32f3xx_hal_uart.o
 .text.HAL_UART_Receive
                0x0000000000000000       0xd0 build/Drivers/STM32F3xx_HAL_Driver/Src/stm32f3xx_hal_uart.o
 .text.HAL_UART_TxCpltCallback
                0x0000000000000000        0x2 build/Drivers/STM32F3xx_HAL_Driver/Src/stm32f3xx_hal_uart.o
 .text.HAL_UART_TxHalfCpltCallback
                0x0000000000000000        0x2 build/Drivers/STM32F3xx_HAL_Driver/Src/stm32f3xx_hal_uart.o
 .text.UART_DMATxHalfCplt
                0x0000000000000000        0xa build/Drivers/STM32F3xx_HAL_Driver/Src/stm32f3xx_hal_uart.o
 .text.HAL_UART_RxCpltCallback
                0x0000000000000000        0x2 build/Drivers/STM32F3xx_HAL_Driver/Src/stm32f3xx_hal_uart.o
 .text.UART_DMAReceiveCplt
                0x0000000000000000       0x2a build/Drivers/STM32F3xx_HAL_Driver/Src/stm32f3xx_hal_uart.o
 .text.HAL_UART_RxHalfCpltCallback
                0x0000000000000000        0x2 build/Drivers/STM32F3xx_HAL_Driver/Src/stm32f3xx_hal_uart.o
 .text.UART_DMARxHalfCplt
                0x0000000000000000        0xa build/Drivers/STM32F3xx_HAL_Driver/Src/stm32f3xx_hal_uart.o
 .text.HAL_UART_ErrorCallback
                0x0000000000000000        0x2 build/Drivers/STM32F3xx_HAL_Driver/Src/stm32f3xx_hal_uart.o
 .text.UART_DMAError
                0x0000000000000000       0x26 build/Drivers/STM32F3xx_HAL_Driver/Src/stm32f3xx_hal_uart.o
 .text.UART_DMATransmitCplt
                0x0000000000000000       0x48 build/Drivers/STM32F3xx_HAL_Driver/Src/stm32f3xx_hal_uart.o
 .text.HAL_UART_WakeupCallback
                0x0000000000000000        0x2 build/Drivers/STM32F3xx_HAL_Driver/Src/stm32f3xx_hal_uart.o
 .text.HAL_UART_IRQHandler
                0x0000000000000000      0x1c4 build/Drivers/STM32F3xx_HAL_Driver/Src/stm32f3xx_hal_uart.o
 .text.HAL_MultiProcessor_EnterMuteMode
                0x0000000000000000        0xc build/Drivers/STM32F3xx_HAL_Driver/Src/stm32f3xx_hal_uart.o
 .text.HAL_UART_GetState
                0x0000000000000000        0x6 build/Drivers/STM32F3xx_HAL_Driver/Src/stm32f3xx_hal_uart.o
 .text.HAL_UART_GetError
                0x0000000000000000        0x6 build/Drivers/STM32F3xx_HAL_Driver/Src/stm32f3xx_hal_uart.o
 .text.UART_SetConfig
                0x0000000000000000      0x218 build/Drivers/STM32F3xx_HAL_Driver/Src/stm32f3xx_hal_uart.o
 .text.UART_AdvFeatureConfig
                0x0000000000000000       0xa8 build/Drivers/STM32F3xx_HAL_Driver/Src/stm32f3xx_hal_uart.o
 .text.UART_CheckIdleState
                0x0000000000000000       0x4c build/Drivers/STM32F3xx_HAL_Driver/Src/stm32f3xx_hal_uart.o
 .text.HAL_UART_Init
                0x0000000000000000       0x5c build/Drivers/STM32F3xx_HAL_Driver/Src/stm32f3xx_hal_uart.o
 .text.HAL_HalfDuplex_Init
                0x0000000000000000       0x64 build/Drivers/STM32F3xx_HAL_Driver/Src/stm32f3xx_hal_uart.o
 .text.HAL_LIN_Init
                0x0000000000000000       0x7a build/Drivers/STM32F3xx_HAL_Driver/Src/stm32f3xx_hal_uart.o
 .text.HAL_MultiProcessor_Init
                0x0000000000000000       0x7e build/Drivers/STM32F3xx_HAL_Driver/Src/stm32f3xx_hal_uart.o
 .text.HAL_UART_DMAResume
                0x0000000000000000       0x50 build/Drivers/STM32F3xx_HAL_Driver/Src/stm32f3xx_hal_uart.o
 .text.HAL_MultiProcessor_EnableMuteMode
                0x0000000000000000       0x2e build/Drivers/STM32F3xx_HAL_Driver/Src/stm32f3xx_hal_uart.o
 .text.HAL_MultiProcessor_DisableMuteMode
                0x0000000000000000       0x2e build/Drivers/STM32F3xx_HAL_Driver/Src/stm32f3xx_hal_uart.o
 .text.UART_Wakeup_AddressConfig
                0x0000000000000000       0x2c build/Drivers/STM32F3xx_HAL_Driver/Src/stm32f3xx_hal_uart.o
 .text.HAL_HalfDuplex_EnableTransmitter
                0x0000000000000000       0x2a build/Drivers/STM32F3xx_HAL_Driver/Src/stm32f3xx_hal_uart.o
 .text.HAL_HalfDuplex_EnableReceiver
                0x0000000000000000       0x2a build/Drivers/STM32F3xx_HAL_Driver/Src/stm32f3xx_hal_uart.o
 .text.HAL_LIN_SendBreak
                0x0000000000000000       0x22 build/Drivers/STM32F3xx_HAL_Driver/Src/stm32f3xx_hal_uart.o
 .rodata.CSWTCH.36
                0x0000000000000000        0x3 build/Drivers/STM32F3xx_HAL_Driver/Src/stm32f3xx_hal_uart.o
 .debug_info    0x0000000000000000     0x1632 build/Drivers/STM32F3xx_HAL_Driver/Src/stm32f3xx_hal_uart.o
 .debug_abbrev  0x0000000000000000      0x2e1 build/Drivers/STM32F3xx_HAL_Driver/Src/stm32f3xx_hal_uart.o
 .debug_loc     0x0000000000000000      0xfad build/Drivers/STM32F3xx_HAL_Driver/Src/stm32f3xx_hal_uart.o
 .debug_aranges
                0x0000000000000000      0x128 build/Drivers/STM32F3xx_HAL_Driver/Src/stm32f3xx_hal_uart.o
 .debug_ranges  0x0000000000000000      0x150 build/Drivers/STM32F3xx_HAL_Driver/Src/stm32f3xx_hal_uart.o
 .debug_line    0x0000000000000000     0x1684 build/Drivers/STM32F3xx_HAL_Driver/Src/stm32f3xx_hal_uart.o
 .debug_str     0x0000000000000000      0xc7d build/Drivers/STM32F3xx_HAL_Driver/Src/stm32f3xx_hal_uart.o
 .comment       0x0000000000000000       0x34 build/Drivers/STM32F3xx_HAL_Driver/Src/stm32f3xx_hal_uart.o
 .debug_frame   0x0000000000000000      0x3d0 build/Drivers/STM32F3xx_HAL_Driver/Src/stm32f3xx_hal_uart.o
 .ARM.attributes
                0x0000000000000000       0x34 build/Drivers/STM32F3xx_HAL_Driver/Src/stm32f3xx_hal_uart.o
 .text          0x0000000000000000        0x0 build/Drivers/STM32F3xx_HAL_Driver/Src/stm32f3xx_hal_gpio.o
 .data          0x0000000000000000        0x0 build/Drivers/STM32F3xx_HAL_Driver/Src/stm32f3xx_hal_gpio.o
 .bss           0x0000000000000000        0x0 build/Drivers/STM32F3xx_HAL_Driver/Src/stm32f3xx_hal_gpio.o
 .text.HAL_GPIO_DeInit
                0x0000000000000000       0xb0 build/Drivers/STM32F3xx_HAL_Driver/Src/stm32f3xx_hal_gpio.o
 .text.HAL_GPIO_LockPin
                0x0000000000000000       0x2a build/Drivers/STM32F3xx_HAL_Driver/Src/stm32f3xx_hal_gpio.o
 .text.HAL_GPIO_EXTI_Callback
                0x0000000000000000        0x2 build/Drivers/STM32F3xx_HAL_Driver/Src/stm32f3xx_hal_gpio.o
 .text.HAL_GPIO_EXTI_IRQHandler
                0x0000000000000000       0x18 build/Drivers/STM32F3xx_HAL_Driver/Src/stm32f3xx_hal_gpio.o
 .text          0x0000000000000000        0x0 build/Drivers/STM32F3xx_HAL_Driver/Src/stm32f3xx_hal_pcd.o
 .data          0x0000000000000000        0x0 build/Drivers/STM32F3xx_HAL_Driver/Src/stm32f3xx_hal_pcd.o
 .bss           0x0000000000000000        0x0 build/Drivers/STM32F3xx_HAL_Driver/Src/stm32f3xx_hal_pcd.o
 .text.HAL_PCD_MspInit
                0x0000000000000000        0x2 build/Drivers/STM32F3xx_HAL_Driver/Src/stm32f3xx_hal_pcd.o
 .text.HAL_PCD_MspDeInit
                0x0000000000000000        0x2 build/Drivers/STM32F3xx_HAL_Driver/Src/stm32f3xx_hal_pcd.o
 .text.HAL_PCD_Stop
                0x0000000000000000       0x28 build/Drivers/STM32F3xx_HAL_Driver/Src/stm32f3xx_hal_pcd.o
 .text.HAL_PCD_DeInit
                0x0000000000000000       0x22 build/Drivers/STM32F3xx_HAL_Driver/Src/stm32f3xx_hal_pcd.o
 .text.HAL_PCD_DataOutStageCallback
                0x0000000000000000        0x2 build/Drivers/STM32F3xx_HAL_Driver/Src/stm32f3xx_hal_pcd.o
 .text.HAL_PCD_DataInStageCallback
                0x0000000000000000        0x2 build/Drivers/STM32F3xx_HAL_Driver/Src/stm32f3xx_hal_pcd.o
 .text.HAL_PCD_SetupStageCallback
                0x0000000000000000        0x2 build/Drivers/STM32F3xx_HAL_Driver/Src/stm32f3xx_hal_pcd.o
 .text.HAL_PCD_SOFCallback
                0x0000000000000000        0x2 build/Drivers/STM32F3xx_HAL_Driver/Src/stm32f3xx_hal_pcd.o
 .text.HAL_PCD_ResetCallback
                0x0000000000000000        0x2 build/Drivers/STM32F3xx_HAL_Driver/Src/stm32f3xx_hal_pcd.o
 .text.HAL_PCD_SuspendCallback
                0x0000000000000000        0x2 build/Drivers/STM32F3xx_HAL_Driver/Src/stm32f3xx_hal_pcd.o
 .text.HAL_PCD_ResumeCallback
                0x0000000000000000        0x2 build/Drivers/STM32F3xx_HAL_Driver/Src/stm32f3xx_hal_pcd.o
 .text.HAL_PCD_ISOOUTIncompleteCallback
                0x0000000000000000        0x2 build/Drivers/STM32F3xx_HAL_Driver/Src/stm32f3xx_hal_pcd.o
 .text.HAL_PCD_ISOINIncompleteCallback
                0x0000000000000000        0x2 build/Drivers/STM32F3xx_HAL_Driver/Src/stm32f3xx_hal_pcd.o
 .text.HAL_PCD_ConnectCallback
                0x0000000000000000        0x2 build/Drivers/STM32F3xx_HAL_Driver/Src/stm32f3xx_hal_pcd.o
 .text.HAL_PCD_DisconnectCallback
                0x0000000000000000        0x2 build/Drivers/STM32F3xx_HAL_Driver/Src/stm32f3xx_hal_pcd.o
 .text.HAL_PCD_DevConnect
                0x0000000000000000       0x22 build/Drivers/STM32F3xx_HAL_Driver/Src/stm32f3xx_hal_pcd.o
 .text.HAL_PCD_DevDisconnect
                0x0000000000000000       0x24 build/Drivers/STM32F3xx_HAL_Driver/Src/stm32f3xx_hal_pcd.o
 .text.HAL_PCD_EP_Flush
                0x0000000000000000        0x4 build/Drivers/STM32F3xx_HAL_Driver/Src/stm32f3xx_hal_pcd.o
 .text.HAL_PCD_ActiveRemoteWakeup
                0x0000000000000000       0x14 build/Drivers/STM32F3xx_HAL_Driver/Src/stm32f3xx_hal_pcd.o
 .text.HAL_PCD_DeActiveRemoteWakeup
                0x0000000000000000       0x16 build/Drivers/STM32F3xx_HAL_Driver/Src/stm32f3xx_hal_pcd.o
 .text.HAL_PCD_GetState
                0x0000000000000000        0x6 build/Drivers/STM32F3xx_HAL_Driver/Src/stm32f3xx_hal_pcd.o
 .text          0x0000000000000000        0x0 build/Drivers/STM32F3xx_HAL_Driver/Src/stm32f3xx_hal_pcd_ex.o
 .data          0x0000000000000000        0x0 build/Drivers/STM32F3xx_HAL_Driver/Src/stm32f3xx_hal_pcd_ex.o
 .bss           0x0000000000000000        0x0 build/Drivers/STM32F3xx_HAL_Driver/Src/stm32f3xx_hal_pcd_ex.o
 .text          0x0000000000000000        0x0 build/Drivers/STM32F3xx_HAL_Driver/Src/stm32f3xx_hal_i2c.o
 .data          0x0000000000000000        0x0 build/Drivers/STM32F3xx_HAL_Driver/Src/stm32f3xx_hal_i2c.o
 .bss           0x0000000000000000        0x0 build/Drivers/STM32F3xx_HAL_Driver/Src/stm32f3xx_hal_i2c.o
 .text.HAL_I2C_Master_Transmit
                0x0000000000000000       0xfa build/Drivers/STM32F3xx_HAL_Driver/Src/stm32f3xx_hal_i2c.o
 .text.HAL_I2C_Master_Receive
                0x0000000000000000       0xfe build/Drivers/STM32F3xx_HAL_Driver/Src/stm32f3xx_hal_i2c.o
 .text.HAL_I2C_Slave_Transmit
                0x0000000000000000      0x120 build/Drivers/STM32F3xx_HAL_Driver/Src/stm32f3xx_hal_i2c.o
 .text.HAL_I2C_Slave_Receive
                0x0000000000000000      0x15e build/Drivers/STM32F3xx_HAL_Driver/Src/stm32f3xx_hal_i2c.o
 .text.HAL_I2C_Master_Transmit_IT
                0x0000000000000000       0x8e build/Drivers/STM32F3xx_HAL_Driver/Src/stm32f3xx_hal_i2c.o
 .text.HAL_I2C_Master_Receive_IT
                0x0000000000000000       0x8e build/Drivers/STM32F3xx_HAL_Driver/Src/stm32f3xx_hal_i2c.o
 .text.HAL_I2C_Slave_Transmit_IT
                0x0000000000000000       0x48 build/Drivers/STM32F3xx_HAL_Driver/Src/stm32f3xx_hal_i2c.o
 .text.HAL_I2C_Slave_Receive_IT
                0x0000000000000000       0x48 build/Drivers/STM32F3xx_HAL_Driver/Src/stm32f3xx_hal_i2c.o
 .text.HAL_I2C_Master_Transmit_DMA
                0x0000000000000000       0xc8 build/Drivers/STM32F3xx_HAL_Driver/Src/stm32f3xx_hal_i2c.o
 .text.HAL_I2C_Master_Receive_DMA
                0x0000000000000000       0xb4 build/Drivers/STM32F3xx_HAL_Driver/Src/stm32f3xx_hal_i2c.o
 .text.HAL_I2C_Slave_Transmit_DMA
                0x0000000000000000       0xbc build/Drivers/STM32F3xx_HAL_Driver/Src/stm32f3xx_hal_i2c.o
 .text.HAL_I2C_Slave_Receive_DMA
                0x0000000000000000       0xa8 build/Drivers/STM32F3xx_HAL_Driver/Src/stm32f3xx_hal_i2c.o
 .text.HAL_I2C_Mem_Write_IT
                0x0000000000000000       0xb2 build/Drivers/STM32F3xx_HAL_Driver/Src/stm32f3xx_hal_i2c.o
 .text.HAL_I2C_Mem_Read_IT
                0x0000000000000000       0xb4 build/Drivers/STM32F3xx_HAL_Driver/Src/stm32f3xx_hal_i2c.o
 .text.HAL_I2C_Mem_Write_DMA
                0x0000000000000000       0xe4 build/Drivers/STM32F3xx_HAL_Driver/Src/stm32f3xx_hal_i2c.o
 .text.HAL_I2C_Mem_Read_DMA
                0x0000000000000000       0xe0 build/Drivers/STM32F3xx_HAL_Driver/Src/stm32f3xx_hal_i2c.o
 .text.HAL_I2C_IsDeviceReady
                0x0000000000000000      0x110 build/Drivers/STM32F3xx_HAL_Driver/Src/stm32f3xx_hal_i2c.o
 .text.HAL_I2C_MasterTxCpltCallback
                0x0000000000000000        0x2 build/Drivers/STM32F3xx_HAL_Driver/Src/stm32f3xx_hal_i2c.o
 .text.HAL_I2C_MasterRxCpltCallback
                0x0000000000000000        0x2 build/Drivers/STM32F3xx_HAL_Driver/Src/stm32f3xx_hal_i2c.o
 .text.HAL_I2C_SlaveTxCpltCallback
                0x0000000000000000        0x2 build/Drivers/STM32F3xx_HAL_Driver/Src/stm32f3xx_hal_i2c.o
 .text.HAL_I2C_SlaveRxCpltCallback
                0x0000000000000000        0x2 build/Drivers/STM32F3xx_HAL_Driver/Src/stm32f3xx_hal_i2c.o
 .text.HAL_I2C_MemTxCpltCallback
                0x0000000000000000        0x2 build/Drivers/STM32F3xx_HAL_Driver/Src/stm32f3xx_hal_i2c.o
 .text.HAL_I2C_MemRxCpltCallback
                0x0000000000000000        0x2 build/Drivers/STM32F3xx_HAL_Driver/Src/stm32f3xx_hal_i2c.o
 .text.HAL_I2C_ErrorCallback
                0x0000000000000000        0x2 build/Drivers/STM32F3xx_HAL_Driver/Src/stm32f3xx_hal_i2c.o
 .text.I2C_DMAError
                0x0000000000000000       0x2a build/Drivers/STM32F3xx_HAL_Driver/Src/stm32f3xx_hal_i2c.o
 .text.I2C_DMAMasterTransmitCplt
                0x0000000000000000      0x15c build/Drivers/STM32F3xx_HAL_Driver/Src/stm32f3xx_hal_i2c.o
 .text.I2C_DMAMasterReceiveCplt
                0x0000000000000000      0x176 build/Drivers/STM32F3xx_HAL_Driver/Src/stm32f3xx_hal_i2c.o
 .text.I2C_DMASlaveTransmitCplt
                0x0000000000000000       0x6e build/Drivers/STM32F3xx_HAL_Driver/Src/stm32f3xx_hal_i2c.o
 .text.I2C_DMASlaveReceiveCplt
                0x0000000000000000       0x78 build/Drivers/STM32F3xx_HAL_Driver/Src/stm32f3xx_hal_i2c.o
 .text.I2C_DMAMemTransmitCplt
                0x0000000000000000      0x15c build/Drivers/STM32F3xx_HAL_Driver/Src/stm32f3xx_hal_i2c.o
 .text.I2C_DMAMemReceiveCplt
                0x0000000000000000      0x176 build/Drivers/STM32F3xx_HAL_Driver/Src/stm32f3xx_hal_i2c.o
 .text.HAL_I2C_ER_IRQHandler
                0x0000000000000000       0x70 build/Drivers/STM32F3xx_HAL_Driver/Src/stm32f3xx_hal_i2c.o
 .text.HAL_I2C_EV_IRQHandler
                0x0000000000000000      0x448 build/Drivers/STM32F3xx_HAL_Driver/Src/stm32f3xx_hal_i2c.o
 .text.HAL_I2C_GetError
                0x0000000000000000        0x6 build/Drivers/STM32F3xx_HAL_Driver/Src/stm32f3xx_hal_i2c.o
 .text          0x0000000000000000        0x0 build/Drivers/STM32F3xx_HAL_Driver/Src/stm32f3xx_hal_spi.o
 .data          0x0000000000000000        0x0 build/Drivers/STM32F3xx_HAL_Driver/Src/stm32f3xx_hal_spi.o
 .bss           0x0000000000000000        0x0 build/Drivers/STM32F3xx_HAL_Driver/Src/stm32f3xx_hal_spi.o
 .text.SPI_EndRxTransaction
                0x0000000000000000       0x5a build/Drivers/STM32F3xx_HAL_Driver/Src/stm32f3xx_hal_spi.o
 .text.HAL_SPI_Transmit
                0x0000000000000000      0x12e build/Drivers/STM32F3xx_HAL_Driver/Src/stm32f3xx_hal_spi.o
 .text.HAL_SPI_Receive
                0x0000000000000000      0x1fc build/Drivers/STM32F3xx_HAL_Driver/Src/stm32f3xx_hal_spi.o
 .text.HAL_SPI_Transmit_IT
                0x0000000000000000       0xa0 build/Drivers/STM32F3xx_HAL_Driver/Src/stm32f3xx_hal_spi.o
 .text.HAL_SPI_TransmitReceive_IT
                0x0000000000000000      0x100 build/Drivers/STM32F3xx_HAL_Driver/Src/stm32f3xx_hal_spi.o
 .text.HAL_SPI_Receive_IT
                0x0000000000000000       0xf0 build/Drivers/STM32F3xx_HAL_Driver/Src/stm32f3xx_hal_spi.o
 .text.HAL_SPI_Transmit_DMA
                0x0000000000000000       0xd8 build/Drivers/STM32F3xx_HAL_Driver/Src/stm32f3xx_hal_spi.o
 .text.HAL_SPI_TransmitReceive_DMA
                0x0000000000000000      0x170 build/Drivers/STM32F3xx_HAL_Driver/Src/stm32f3xx_hal_spi.o
 .text.HAL_SPI_Receive_DMA
                0x0000000000000000      0x100 build/Drivers/STM32F3xx_HAL_Driver/Src/stm32f3xx_hal_spi.o
 .text.HAL_SPI_TxCpltCallback
                0x0000000000000000        0x2 build/Drivers/STM32F3xx_HAL_Driver/Src/stm32f3xx_hal_spi.o
 .text.HAL_SPI_RxCpltCallback
                0x0000000000000000        0x2 build/Drivers/STM32F3xx_HAL_Driver/Src/stm32f3xx_hal_spi.o
 .text.HAL_SPI_TxRxCpltCallback
                0x0000000000000000        0x2 build/Drivers/STM32F3xx_HAL_Driver/Src/stm32f3xx_hal_spi.o
 .text.HAL_SPI_ErrorCallback
                0x0000000000000000        0x2 build/Drivers/STM32F3xx_HAL_Driver/Src/stm32f3xx_hal_spi.o
 .text.SPI_CloseTx_ISR
                0x0000000000000000       0x38 build/Drivers/STM32F3xx_HAL_Driver/Src/stm32f3xx_hal_spi.o
 .text.SPI_TxISR_8BIT
                0x0000000000000000       0x2e build/Drivers/STM32F3xx_HAL_Driver/Src/stm32f3xx_hal_spi.o
 .text.SPI_TxISR_16BIT
                0x0000000000000000       0x2c build/Drivers/STM32F3xx_HAL_Driver/Src/stm32f3xx_hal_spi.o
 .text.SPI_CloseRx_ISR
                0x0000000000000000       0x4a build/Drivers/STM32F3xx_HAL_Driver/Src/stm32f3xx_hal_spi.o
 .text.SPI_RxISR_8BIT
                0x0000000000000000       0x54 build/Drivers/STM32F3xx_HAL_Driver/Src/stm32f3xx_hal_spi.o
 .text.SPI_RxISR_8BITCRC
                0x0000000000000000       0x1e build/Drivers/STM32F3xx_HAL_Driver/Src/stm32f3xx_hal_spi.o
 .text.SPI_RxISR_16BIT
                0x0000000000000000       0x54 build/Drivers/STM32F3xx_HAL_Driver/Src/stm32f3xx_hal_spi.o
 .text.SPI_RxISR_16BITCRC
                0x0000000000000000       0x1a build/Drivers/STM32F3xx_HAL_Driver/Src/stm32f3xx_hal_spi.o
 .text.SPI_CloseRxTx_ISR
                0x0000000000000000       0x4a build/Drivers/STM32F3xx_HAL_Driver/Src/stm32f3xx_hal_spi.o
 .text.SPI_2linesTxISR_8BIT
                0x0000000000000000       0x5a build/Drivers/STM32F3xx_HAL_Driver/Src/stm32f3xx_hal_spi.o
 .text.SPI_2linesRxISR_8BIT
                0x0000000000000000       0x6c build/Drivers/STM32F3xx_HAL_Driver/Src/stm32f3xx_hal_spi.o
 .text.SPI_2linesRxISR_8BITCRC
                0x0000000000000000       0x2a build/Drivers/STM32F3xx_HAL_Driver/Src/stm32f3xx_hal_spi.o
 .text.SPI_2linesTxISR_16BIT
                0x0000000000000000       0x3a build/Drivers/STM32F3xx_HAL_Driver/Src/stm32f3xx_hal_spi.o
 .text.SPI_2linesRxISR_16BIT
                0x0000000000000000       0x48 build/Drivers/STM32F3xx_HAL_Driver/Src/stm32f3xx_hal_spi.o
 .text.SPI_2linesRxISR_16BITCRC
                0x0000000000000000       0x1a build/Drivers/STM32F3xx_HAL_Driver/Src/stm32f3xx_hal_spi.o
 .text.HAL_SPI_DMAError
                0x0000000000000000       0x24 build/Drivers/STM32F3xx_HAL_Driver/Src/stm32f3xx_hal_spi.o
 .text.HAL_SPI_DMATransmitCplt
                0x0000000000000000       0x56 build/Drivers/STM32F3xx_HAL_Driver/Src/stm32f3xx_hal_spi.o
 .text.HAL_SPI_DMAReceiveCplt
                0x0000000000000000       0xbc build/Drivers/STM32F3xx_HAL_Driver/Src/stm32f3xx_hal_spi.o
 .text.HAL_SPI_DMATransmitReceiveCplt
                0x0000000000000000       0xba build/Drivers/STM32F3xx_HAL_Driver/Src/stm32f3xx_hal_spi.o
 .text.HAL_SPI_IRQHandler
                0x0000000000000000       0x98 build/Drivers/STM32F3xx_HAL_Driver/Src/stm32f3xx_hal_spi.o
 .text          0x0000000000000000        0x0 build/Drivers/STM32_USB_Device_Library/Core/Src/usbd_core.o
 .data          0x0000000000000000        0x0 build/Drivers/STM32_USB_Device_Library/Core/Src/usbd_core.o
 .bss           0x0000000000000000        0x0 build/Drivers/STM32_USB_Device_Library/Core/Src/usbd_core.o
 .text.USBD_DeInit
                0x0000000000000000       0x24 build/Drivers/STM32_USB_Device_Library/Core/Src/usbd_core.o
 .text.USBD_Stop
                0x0000000000000000       0x18 build/Drivers/STM32_USB_Device_Library/Core/Src/usbd_core.o
 .text.USBD_RunTestMode
                0x0000000000000000        0x4 build/Drivers/STM32_USB_Device_Library/Core/Src/usbd_core.o
 .text.USBD_LL_Suspend
                0x0000000000000000       0x12 build/Drivers/STM32_USB_Device_Library/Core/Src/usbd_core.o
 .text.USBD_LL_Resume
                0x0000000000000000        0xc build/Drivers/STM32_USB_Device_Library/Core/Src/usbd_core.o
 .text.USBD_LL_IsoINIncomplete
                0x0000000000000000        0x4 build/Drivers/STM32_USB_Device_Library/Core/Src/usbd_core.o
 .text.USBD_LL_IsoOUTIncomplete
                0x0000000000000000        0x4 build/Drivers/STM32_USB_Device_Library/Core/Src/usbd_core.o
 .text.USBD_LL_DevConnected
                0x0000000000000000        0x4 build/Drivers/STM32_USB_Device_Library/Core/Src/usbd_core.o
 .text.USBD_LL_DevDisconnected
                0x0000000000000000       0x16 build/Drivers/STM32_USB_Device_Library/Core/Src/usbd_core.o
 .text          0x0000000000000000        0x0 build/Drivers/STM32_USB_Device_Library/Core/Src/usbd_ctlreq.o
 .data          0x0000000000000000        0x0 build/Drivers/STM32_USB_Device_Library/Core/Src/usbd_ctlreq.o
 .bss           0x0000000000000000        0x0 build/Drivers/STM32_USB_Device_Library/Core/Src/usbd_ctlreq.o
 .text.USBD_CtlError
                0x0000000000000000       0x16 build/Drivers/STM32_USB_Device_Library/Core/Src/usbd_ctlreq.o
 .text          0x0000000000000000        0x0 build/Drivers/STM32_USB_Device_Library/Core/Src/usbd_ioreq.o
 .data          0x0000000000000000        0x0 build/Drivers/STM32_USB_Device_Library/Core/Src/usbd_ioreq.o
 .bss           0x0000000000000000        0x0 build/Drivers/STM32_USB_Device_Library/Core/Src/usbd_ioreq.o
 .text.USBD_GetRxCount
                0x0000000000000000        0xa build/Drivers/STM32_USB_Device_Library/Core/Src/usbd_ioreq.o
 .text          0x0000000000000000        0x0 build/Drivers/STM32_USB_Device_Library/Class/CDC/Src/usbd_cdc.o
 .data          0x0000000000000000        0x0 build/Drivers/STM32_USB_Device_Library/Class/CDC/Src/usbd_cdc.o
 .bss           0x0000000000000000        0x0 build/Drivers/STM32_USB_Device_Library/Class/CDC/Src/usbd_cdc.o
 .text          0x0000000000000000        0x0 build/usbd_conf.o
 .data          0x0000000000000000        0x0 build/usbd_conf.o
 .bss           0x0000000000000000        0x0 build/usbd_conf.o
 .text.HAL_PCD_MspDeInit
                0x0000000000000000       0x18 build/usbd_conf.o
 .text.HAL_PCD_ISOOUTIncompleteCallback
                0x0000000000000000        0x8 build/usbd_conf.o
 .text.HAL_PCD_ISOINIncompleteCallback
                0x0000000000000000        0x8 build/usbd_conf.o
 .text.HAL_PCD_ConnectCallback
                0x0000000000000000        0x8 build/usbd_conf.o
 .text.HAL_PCD_DisconnectCallback
                0x0000000000000000        0x8 build/usbd_conf.o
 .text.USBD_LL_DeInit
                0x0000000000000000        0xe build/usbd_conf.o
 .text.USBD_LL_Stop
                0x0000000000000000        0xe build/usbd_conf.o
 .text.USBD_LL_FlushEP
                0x0000000000000000        0xe build/usbd_conf.o
 .text.USBD_LL_Delay
                0x0000000000000000        0x4 build/usbd_conf.o
 .text          0x0000000000000000        0x0 build/usbd_desc.o
 .data          0x0000000000000000        0x0 build/usbd_desc.o
 .bss           0x0000000000000000        0x0 build/usbd_desc.o
 .text          0x0000000000000000        0x0 build/usbd_cdc_interface.o
 .data          0x0000000000000000        0x0 build/usbd_cdc_interface.o
 .bss           0x0000000000000000        0x0 build/usbd_cdc_interface.o
 .bss.BuffLength
                0x0000000000000000        0x4 build/usbd_cdc_interface.o
 .bss.TimHandle
                0x0000000000000000       0x3c build/usbd_cdc_interface.o
 .bss.UartHandle
                0x0000000000000000       0x6c build/usbd_cdc_interface.o
 .bss.UserTxBufPtrIn
                0x0000000000000000        0x4 build/usbd_cdc_interface.o
 .bss.UserTxBufPtrOut
                0x0000000000000000        0x4 build/usbd_cdc_interface.o
 .text          0x0000000000000000        0x0 build/Drivers/BSP/STM32F3-Discovery/stm32f3_discovery.o
 .data          0x0000000000000000        0x0 build/Drivers/BSP/STM32F3-Discovery/stm32f3_discovery.o
 .bss           0x0000000000000000        0x0 build/Drivers/BSP/STM32F3-Discovery/stm32f3_discovery.o
 .text.BSP_GetVersion
                0x0000000000000000        0x8 build/Drivers/BSP/STM32F3-Discovery/stm32f3_discovery.o
 .rodata.BUTTON_IRQn
                0x0000000000000000        0x1 build/Drivers/BSP/STM32F3-Discovery/stm32f3_discovery.o
 .rodata.BUTTON_PIN
                0x0000000000000000        0x2 build/Drivers/BSP/STM32F3-Discovery/stm32f3_discovery.o
 .text          0x0000000000000000        0x0 build/Drivers/BSP/STM32F3-Discovery/stm32f3_discovery_accelerometer.o
 .data          0x0000000000000000        0x0 build/Drivers/BSP/STM32F3-Discovery/stm32f3_discovery_accelerometer.o
 .bss           0x0000000000000000        0x0 build/Drivers/BSP/STM32F3-Discovery/stm32f3_discovery_accelerometer.o
 .text.BSP_ACCELERO_Reset
                0x0000000000000000       0x10 build/Drivers/BSP/STM32F3-Discovery/stm32f3_discovery_accelerometer.o
 .text          0x0000000000000000        0x0 build/Drivers/BSP/STM32F3-Discovery/stm32f3_discovery_gyroscope.o
 .data          0x0000000000000000        0x0 build/Drivers/BSP/STM32F3-Discovery/stm32f3_discovery_gyroscope.o
 .bss           0x0000000000000000        0x0 build/Drivers/BSP/STM32F3-Discovery/stm32f3_discovery_gyroscope.o
 .text.BSP_GYRO_ReadID
                0x0000000000000000       0x10 build/Drivers/BSP/STM32F3-Discovery/stm32f3_discovery_gyroscope.o
 .text.BSP_GYRO_Reset
                0x0000000000000000       0x10 build/Drivers/BSP/STM32F3-Discovery/stm32f3_discovery_gyroscope.o
 .text.BSP_GYRO_ITConfig
                0x0000000000000000       0x1c build/Drivers/BSP/STM32F3-Discovery/stm32f3_discovery_gyroscope.o
 .text.BSP_GYRO_EnableIT
                0x0000000000000000       0x10 build/Drivers/BSP/STM32F3-Discovery/stm32f3_discovery_gyroscope.o
 .text.BSP_GYRO_DisableIT
                0x0000000000000000       0x10 build/Drivers/BSP/STM32F3-Discovery/stm32f3_discovery_gyroscope.o
 .text          0x0000000000000000        0x0 build/Drivers/BSP/Components/lsm303dlhc/lsm303dlhc.o
 .data          0x0000000000000000        0x0 build/Drivers/BSP/Components/lsm303dlhc/lsm303dlhc.o
 .bss           0x0000000000000000        0x0 build/Drivers/BSP/Components/lsm303dlhc/lsm303dlhc.o
 .text.LSM303DLHC_AccIT1Disable
                0x0000000000000000       0x1e build/Drivers/BSP/Components/lsm303dlhc/lsm303dlhc.o
 .text.LSM303DLHC_AccIT2Enable
                0x0000000000000000       0x1c build/Drivers/BSP/Components/lsm303dlhc/lsm303dlhc.o
 .text.LSM303DLHC_AccIT2Disable
                0x0000000000000000       0x1e build/Drivers/BSP/Components/lsm303dlhc/lsm303dlhc.o
 .text.LSM303DLHC_AccINT1InterruptEnable
                0x0000000000000000       0x20 build/Drivers/BSP/Components/lsm303dlhc/lsm303dlhc.o
 .text.LSM303DLHC_AccINT1InterruptDisable
                0x0000000000000000       0x22 build/Drivers/BSP/Components/lsm303dlhc/lsm303dlhc.o
 .text.LSM303DLHC_AccINT2InterruptEnable
                0x0000000000000000       0x20 build/Drivers/BSP/Components/lsm303dlhc/lsm303dlhc.o
 .text.LSM303DLHC_AccINT2InterruptDisable
                0x0000000000000000       0x22 build/Drivers/BSP/Components/lsm303dlhc/lsm303dlhc.o
 .text.LSM303DLHC_AccClickITDisable
                0x0000000000000000       0x1e build/Drivers/BSP/Components/lsm303dlhc/lsm303dlhc.o
 .text          0x0000000000000000        0x0 build/Drivers/BSP/Components/l3gd20/l3gd20.o
 .data          0x0000000000000000        0x0 build/Drivers/BSP/Components/l3gd20/l3gd20.o
 .bss           0x0000000000000000        0x0 build/Drivers/BSP/Components/l3gd20/l3gd20.o
 .text.L3GD20_GetDataStatus
                0x0000000000000000       0x18 build/Drivers/BSP/Components/l3gd20/l3gd20.o
 .text          0x0000000000000000        0x0 build/Drivers/BSP/Components/i3g4250d/i3g4250d.o
 .data          0x0000000000000000        0x0 build/Drivers/BSP/Components/i3g4250d/i3g4250d.o
 .bss           0x0000000000000000        0x0 build/Drivers/BSP/Components/i3g4250d/i3g4250d.o
 .text.I3G4250D_GetDataStatus
                0x0000000000000000       0x18 build/Drivers/BSP/Components/i3g4250d/i3g4250d.o
 .text          0x0000000000000000        0x0 build/Drivers/BSP/Components/lsm303agr/lsm303agr.o
 .data          0x0000000000000000        0x0 build/Drivers/BSP/Components/lsm303agr/lsm303agr.o
 .bss           0x0000000000000000        0x0 build/Drivers/BSP/Components/lsm303agr/lsm303agr.o
 .text.LSM303AGR_AccIT1Disable
                0x0000000000000000       0x1e build/Drivers/BSP/Components/lsm303agr/lsm303agr.o
 .text.LSM303AGR_AccIT2Enable
                0x0000000000000000       0x1c build/Drivers/BSP/Components/lsm303agr/lsm303agr.o
 .text.LSM303AGR_AccIT2Disable
                0x0000000000000000       0x1e build/Drivers/BSP/Components/lsm303agr/lsm303agr.o
 .text.LSM303AGR_AccINT1InterruptEnable
                0x0000000000000000       0x20 build/Drivers/BSP/Components/lsm303agr/lsm303agr.o
 .text.LSM303AGR_AccINT1InterruptDisable
                0x0000000000000000       0x22 build/Drivers/BSP/Components/lsm303agr/lsm303agr.o
 .text.LSM303AGR_AccINT2InterruptEnable
                0x0000000000000000       0x20 build/Drivers/BSP/Components/lsm303agr/lsm303agr.o
 .text.LSM303AGR_AccINT2InterruptDisable
                0x0000000000000000       0x22 build/Drivers/BSP/Components/lsm303agr/lsm303agr.o
 .text.LSM303AGR_AccClickITDisable
                0x0000000000000000       0x1e build/Drivers/BSP/Components/lsm303agr/lsm303agr.o
 .bss.tmpreg2A  0x0000000000000000        0x8 build/Drivers/BSP/Components/lsm303agr/lsm303agr.o
 .bss.tmpreg3A  0x0000000000000000        0x1 build/Drivers/BSP/Components/lsm303agr/lsm303agr.o
 .bss.tmpregcfgA
                0x0000000000000000        0x1 build/Drivers/BSP/Components/lsm303agr/lsm303agr.o
 .text          0x0000000000000000       0x14 build/Drivers/CMSIS/Device/ST/STM32F3xx/Source/Templates/gcc/startup_stm32f303xc.o
 .data          0x0000000000000000        0x0 build/Drivers/CMSIS/Device/ST/STM32F3xx/Source/Templates/gcc/startup_stm32f303xc.o
 .bss           0x0000000000000000        0x0 build/Drivers/CMSIS/Device/ST/STM32F3xx/Source/Templates/gcc/startup_stm32f303xc.o
 .data          0x0000000000000000        0x0 /usr/lib/gcc/arm-none-eabi/10.3.1/../../../arm-none-eabi/lib/thumb/v7e-m+fp/hard/libg.a(lib_a-atexit.o)
 .bss           0x0000000000000000        0x0 /usr/lib/gcc/arm-none-eabi/10.3.1/../../../arm-none-eabi/lib/thumb/v7e-m+fp/hard/libg.a(lib_a-atexit.o)
 .text          0x0000000000000000        0x0 /usr/lib/gcc/arm-none-eabi/10.3.1/../../../arm-none-eabi/lib/thumb/v7e-m+fp/hard/libg.a(lib_a-ctype_.o)
 .data          0x0000000000000000        0x0 /usr/lib/gcc/arm-none-eabi/10.3.1/../../../arm-none-eabi/lib/thumb/v7e-m+fp/hard/libg.a(lib_a-ctype_.o)
 .bss           0x0000000000000000        0x0 /usr/lib/gcc/arm-none-eabi/10.3.1/../../../arm-none-eabi/lib/thumb/v7e-m+fp/hard/libg.a(lib_a-ctype_.o)
 .data          0x0000000000000000        0x0 /usr/lib/gcc/arm-none-eabi/10.3.1/../../../arm-none-eabi/lib/thumb/v7e-m+fp/hard/libg.a(lib_a-errno.o)
 .bss           0x0000000000000000        0x0 /usr/lib/gcc/arm-none-eabi/10.3.1/../../../arm-none-eabi/lib/thumb/v7e-m+fp/hard/libg.a(lib_a-errno.o)
 .text          0x0000000000000000       0x20 /usr/lib/gcc/arm-none-eabi/10.3.1/../../../arm-none-eabi/lib/thumb/v7e-m+fp/hard/libg.a(lib_a-exit.o)
 .data          0x0000000000000000        0x0 /usr/lib/gcc/arm-none-eabi/10.3.1/../../../arm-none-eabi/lib/thumb/v7e-m+fp/hard/libg.a(lib_a-exit.o)
 .bss           0x0000000000000000        0x0 /usr/lib/gcc/arm-none-eabi/10.3.1/../../../arm-none-eabi/lib/thumb/v7e-m+fp/hard/libg.a(lib_a-exit.o)
 .debug_info    0x0000000000000000      0x969 /usr/lib/gcc/arm-none-eabi/10.3.1/../../../arm-none-eabi/lib/thumb/v7e-m+fp/hard/libg.a(lib_a-exit.o)
 .debug_abbrev  0x0000000000000000      0x20c /usr/lib/gcc/arm-none-eabi/10.3.1/../../../arm-none-eabi/lib/thumb/v7e-m+fp/hard/libg.a(lib_a-exit.o)
 .debug_loc     0x0000000000000000       0x22 /usr/lib/gcc/arm-none-eabi/10.3.1/../../../arm-none-eabi/lib/thumb/v7e-m+fp/hard/libg.a(lib_a-exit.o)
 .debug_aranges
                0x0000000000000000       0x20 /usr/lib/gcc/arm-none-eabi/10.3.1/../../../arm-none-eabi/lib/thumb/v7e-m+fp/hard/libg.a(lib_a-exit.o)
 .debug_line    0x0000000000000000      0x179 /usr/lib/gcc/arm-none-eabi/10.3.1/../../../arm-none-eabi/lib/thumb/v7e-m+fp/hard/libg.a(lib_a-exit.o)
 .debug_str     0x0000000000000000      0x58b /usr/lib/gcc/arm-none-eabi/10.3.1/../../../arm-none-eabi/lib/thumb/v7e-m+fp/hard/libg.a(lib_a-exit.o)
 .comment       0x0000000000000000       0x34 /usr/lib/gcc/arm-none-eabi/10.3.1/../../../arm-none-eabi/lib/thumb/v7e-m+fp/hard/libg.a(lib_a-exit.o)
 .debug_frame   0x0000000000000000       0x28 /usr/lib/gcc/arm-none-eabi/10.3.1/../../../arm-none-eabi/lib/thumb/v7e-m+fp/hard/libg.a(lib_a-exit.o)
 .ARM.attributes
                0x0000000000000000       0x34 /usr/lib/gcc/arm-none-eabi/10.3.1/../../../arm-none-eabi/lib/thumb/v7e-m+fp/hard/libg.a(lib_a-exit.o)
 .data          0x0000000000000000        0x0 /usr/lib/gcc/arm-none-eabi/10.3.1/../../../arm-none-eabi/lib/thumb/v7e-m+fp/hard/libg.a(lib_a-fini.o)
 .bss           0x0000000000000000        0x0 /usr/lib/gcc/arm-none-eabi/10.3.1/../../../arm-none-eabi/lib/thumb/v7e-m+fp/hard/libg.a(lib_a-fini.o)
 .text          0x0000000000000000        0x0 /usr/lib/gcc/arm-none-eabi/10.3.1/../../../arm-none-eabi/lib/thumb/v7e-m+fp/hard/libg.a(lib_a-impure.o)
 .bss           0x0000000000000000        0x0 /usr/lib/gcc/arm-none-eabi/10.3.1/../../../arm-none-eabi/lib/thumb/v7e-m+fp/hard/libg.a(lib_a-impure.o)
 .data          0x0000000000000000        0x0 /usr/lib/gcc/arm-none-eabi/10.3.1/../../../arm-none-eabi/lib/thumb/v7e-m+fp/hard/libg.a(lib_a-init.o)
 .bss           0x0000000000000000        0x0 /usr/lib/gcc/arm-none-eabi/10.3.1/../../../arm-none-eabi/lib/thumb/v7e-m+fp/hard/libg.a(lib_a-init.o)
 .data          0x0000000000000000        0x0 /usr/lib/gcc/arm-none-eabi/10.3.1/../../../arm-none-eabi/lib/thumb/v7e-m+fp/hard/libg.a(lib_a-memset.o)
 .bss           0x0000000000000000        0x0 /usr/lib/gcc/arm-none-eabi/10.3.1/../../../arm-none-eabi/lib/thumb/v7e-m+fp/hard/libg.a(lib_a-memset.o)
 .data          0x0000000000000000        0x0 /usr/lib/gcc/arm-none-eabi/10.3.1/../../../arm-none-eabi/lib/thumb/v7e-m+fp/hard/libg.a(lib_a-printf.o)
 .bss           0x0000000000000000        0x0 /usr/lib/gcc/arm-none-eabi/10.3.1/../../../arm-none-eabi/lib/thumb/v7e-m+fp/hard/libg.a(lib_a-printf.o)
 .data          0x0000000000000000        0x0 /usr/lib/gcc/arm-none-eabi/10.3.1/../../../arm-none-eabi/lib/thumb/v7e-m+fp/hard/libg.a(lib_a-putchar.o)
 .bss           0x0000000000000000        0x0 /usr/lib/gcc/arm-none-eabi/10.3.1/../../../arm-none-eabi/lib/thumb/v7e-m+fp/hard/libg.a(lib_a-putchar.o)
 .data          0x0000000000000000        0x0 /usr/lib/gcc/arm-none-eabi/10.3.1/../../../arm-none-eabi/lib/thumb/v7e-m+fp/hard/libg.a(lib_a-puts.o)
 .bss           0x0000000000000000        0x0 /usr/lib/gcc/arm-none-eabi/10.3.1/../../../arm-none-eabi/lib/thumb/v7e-m+fp/hard/libg.a(lib_a-puts.o)
 .data          0x0000000000000000        0x0 /usr/lib/gcc/arm-none-eabi/10.3.1/../../../arm-none-eabi/lib/thumb/v7e-m+fp/hard/libg.a(lib_a-setvbuf.o)
 .bss           0x0000000000000000        0x0 /usr/lib/gcc/arm-none-eabi/10.3.1/../../../arm-none-eabi/lib/thumb/v7e-m+fp/hard/libg.a(lib_a-setvbuf.o)
 .data          0x0000000000000000        0x0 /usr/lib/gcc/arm-none-eabi/10.3.1/../../../arm-none-eabi/lib/thumb/v7e-m+fp/hard/libg.a(lib_a-strcasecmp.o)
 .bss           0x0000000000000000        0x0 /usr/lib/gcc/arm-none-eabi/10.3.1/../../../arm-none-eabi/lib/thumb/v7e-m+fp/hard/libg.a(lib_a-strcasecmp.o)
 .data          0x0000000000000000        0x0 /usr/lib/gcc/arm-none-eabi/10.3.1/../../../arm-none-eabi/lib/thumb/v7e-m+fp/hard/libg.a(lib_a-strcpy.o)
 .bss           0x0000000000000000        0x0 /usr/lib/gcc/arm-none-eabi/10.3.1/../../../arm-none-eabi/lib/thumb/v7e-m+fp/hard/libg.a(lib_a-strcpy.o)
 .data          0x0000000000000000        0x0 /usr/lib/gcc/arm-none-eabi/10.3.1/../../../arm-none-eabi/lib/thumb/v7e-m+fp/hard/libg.a(lib_a-strlen.o)
 .bss           0x0000000000000000        0x0 /usr/lib/gcc/arm-none-eabi/10.3.1/../../../arm-none-eabi/lib/thumb/v7e-m+fp/hard/libg.a(lib_a-strlen.o)
 .data          0x0000000000000000        0x0 /usr/lib/gcc/arm-none-eabi/10.3.1/../../../arm-none-eabi/lib/thumb/v7e-m+fp/hard/libg.a(lib_a-strtok.o)
 .bss           0x0000000000000000        0x0 /usr/lib/gcc/arm-none-eabi/10.3.1/../../../arm-none-eabi/lib/thumb/v7e-m+fp/hard/libg.a(lib_a-strtok.o)
 .data          0x0000000000000000        0x0 /usr/lib/gcc/arm-none-eabi/10.3.1/../../../arm-none-eabi/lib/thumb/v7e-m+fp/hard/libg.a(lib_a-strtok_r.o)
 .bss           0x0000000000000000        0x0 /usr/lib/gcc/arm-none-eabi/10.3.1/../../../arm-none-eabi/lib/thumb/v7e-m+fp/hard/libg.a(lib_a-strtok_r.o)
 .text          0x0000000000000000      0x188 /usr/lib/gcc/arm-none-eabi/10.3.1/../../../arm-none-eabi/lib/thumb/v7e-m+fp/hard/libg.a(lib_a-strtol.o)
 .data          0x0000000000000000        0x0 /usr/lib/gcc/arm-none-eabi/10.3.1/../../../arm-none-eabi/lib/thumb/v7e-m+fp/hard/libg.a(lib_a-strtol.o)
 .bss           0x0000000000000000        0x0 /usr/lib/gcc/arm-none-eabi/10.3.1/../../../arm-none-eabi/lib/thumb/v7e-m+fp/hard/libg.a(lib_a-strtol.o)
 .debug_info    0x0000000000000000     0x1066 /usr/lib/gcc/arm-none-eabi/10.3.1/../../../arm-none-eabi/lib/thumb/v7e-m+fp/hard/libg.a(lib_a-strtol.o)
 .debug_abbrev  0x0000000000000000      0x314 /usr/lib/gcc/arm-none-eabi/10.3.1/../../../arm-none-eabi/lib/thumb/v7e-m+fp/hard/libg.a(lib_a-strtol.o)
 .debug_loc     0x0000000000000000      0xaa7 /usr/lib/gcc/arm-none-eabi/10.3.1/../../../arm-none-eabi/lib/thumb/v7e-m+fp/hard/libg.a(lib_a-strtol.o)
 .debug_aranges
                0x0000000000000000       0x20 /usr/lib/gcc/arm-none-eabi/10.3.1/../../../arm-none-eabi/lib/thumb/v7e-m+fp/hard/libg.a(lib_a-strtol.o)
 .debug_ranges  0x0000000000000000       0x58 /usr/lib/gcc/arm-none-eabi/10.3.1/../../../arm-none-eabi/lib/thumb/v7e-m+fp/hard/libg.a(lib_a-strtol.o)
 .debug_line    0x0000000000000000      0x41d /usr/lib/gcc/arm-none-eabi/10.3.1/../../../arm-none-eabi/lib/thumb/v7e-m+fp/hard/libg.a(lib_a-strtol.o)
 .debug_str     0x0000000000000000      0x7dd /usr/lib/gcc/arm-none-eabi/10.3.1/../../../arm-none-eabi/lib/thumb/v7e-m+fp/hard/libg.a(lib_a-strtol.o)
 .comment       0x0000000000000000       0x34 /usr/lib/gcc/arm-none-eabi/10.3.1/../../../arm-none-eabi/lib/thumb/v7e-m+fp/hard/libg.a(lib_a-strtol.o)
 .debug_frame   0x0000000000000000       0x80 /usr/lib/gcc/arm-none-eabi/10.3.1/../../../arm-none-eabi/lib/thumb/v7e-m+fp/hard/libg.a(lib_a-strtol.o)
 .ARM.attributes
                0x0000000000000000       0x34 /usr/lib/gcc/arm-none-eabi/10.3.1/../../../arm-none-eabi/lib/thumb/v7e-m+fp/hard/libg.a(lib_a-strtol.o)
 .data          0x0000000000000000        0x0 /usr/lib/gcc/arm-none-eabi/10.3.1/../../../arm-none-eabi/lib/thumb/v7e-m+fp/hard/libg.a(lib_a-strtoul.o)
 .bss           0x0000000000000000        0x0 /usr/lib/gcc/arm-none-eabi/10.3.1/../../../arm-none-eabi/lib/thumb/v7e-m+fp/hard/libg.a(lib_a-strtoul.o)
 .data          0x0000000000000000        0x0 /usr/lib/gcc/arm-none-eabi/10.3.1/../../../arm-none-eabi/lib/thumb/v7e-m+fp/hard/libg.a(lib_a-vfprintf.o)
 .bss           0x0000000000000000        0x0 /usr/lib/gcc/arm-none-eabi/10.3.1/../../../arm-none-eabi/lib/thumb/v7e-m+fp/hard/libg.a(lib_a-vfprintf.o)
 .data          0x0000000000000000        0x0 /usr/lib/gcc/arm-none-eabi/10.3.1/../../../arm-none-eabi/lib/thumb/v7e-m+fp/hard/libg.a(lib_a-wsetup.o)
 .bss           0x0000000000000000        0x0 /usr/lib/gcc/arm-none-eabi/10.3.1/../../../arm-none-eabi/lib/thumb/v7e-m+fp/hard/libg.a(lib_a-wsetup.o)
 .data          0x0000000000000000        0x0 /usr/lib/gcc/arm-none-eabi/10.3.1/../../../arm-none-eabi/lib/thumb/v7e-m+fp/hard/libg.a(lib_a-__atexit.o)
 .bss           0x0000000000000000        0x0 /usr/lib/gcc/arm-none-eabi/10.3.1/../../../arm-none-eabi/lib/thumb/v7e-m+fp/hard/libg.a(lib_a-__atexit.o)
 .text          0x0000000000000000       0xb8 /usr/lib/gcc/arm-none-eabi/10.3.1/../../../arm-none-eabi/lib/thumb/v7e-m+fp/hard/libg.a(lib_a-__call_atexit.o)
 .data          0x0000000000000000        0x0 /usr/lib/gcc/arm-none-eabi/10.3.1/../../../arm-none-eabi/lib/thumb/v7e-m+fp/hard/libg.a(lib_a-__call_atexit.o)
 .bss           0x0000000000000000        0x0 /usr/lib/gcc/arm-none-eabi/10.3.1/../../../arm-none-eabi/lib/thumb/v7e-m+fp/hard/libg.a(lib_a-__call_atexit.o)
 .data          0x0000000000000000        0x0 /usr/lib/gcc/arm-none-eabi/10.3.1/../../../arm-none-eabi/lib/thumb/v7e-m+fp/hard/libg.a(lib_a-dtoa.o)
 .bss           0x0000000000000000        0x0 /usr/lib/gcc/arm-none-eabi/10.3.1/../../../arm-none-eabi/lib/thumb/v7e-m+fp/hard/libg.a(lib_a-dtoa.o)
 .data          0x0000000000000000        0x0 /usr/lib/gcc/arm-none-eabi/10.3.1/../../../arm-none-eabi/lib/thumb/v7e-m+fp/hard/libg.a(lib_a-fflush.o)
 .bss           0x0000000000000000        0x0 /usr/lib/gcc/arm-none-eabi/10.3.1/../../../arm-none-eabi/lib/thumb/v7e-m+fp/hard/libg.a(lib_a-fflush.o)
 .data          0x0000000000000000        0x0 /usr/lib/gcc/arm-none-eabi/10.3.1/../../../arm-none-eabi/lib/thumb/v7e-m+fp/hard/libg.a(lib_a-findfp.o)
 .bss           0x0000000000000000        0x0 /usr/lib/gcc/arm-none-eabi/10.3.1/../../../arm-none-eabi/lib/thumb/v7e-m+fp/hard/libg.a(lib_a-findfp.o)
 .data          0x0000000000000000        0x0 /usr/lib/gcc/arm-none-eabi/10.3.1/../../../arm-none-eabi/lib/thumb/v7e-m+fp/hard/libg.a(lib_a-freer.o)
 .bss           0x0000000000000000        0x0 /usr/lib/gcc/arm-none-eabi/10.3.1/../../../arm-none-eabi/lib/thumb/v7e-m+fp/hard/libg.a(lib_a-freer.o)
 .data          0x0000000000000000        0x0 /usr/lib/gcc/arm-none-eabi/10.3.1/../../../arm-none-eabi/lib/thumb/v7e-m+fp/hard/libg.a(lib_a-fvwrite.o)
 .bss           0x0000000000000000        0x0 /usr/lib/gcc/arm-none-eabi/10.3.1/../../../arm-none-eabi/lib/thumb/v7e-m+fp/hard/libg.a(lib_a-fvwrite.o)
 .data          0x0000000000000000        0x0 /usr/lib/gcc/arm-none-eabi/10.3.1/../../../arm-none-eabi/lib/thumb/v7e-m+fp/hard/libg.a(lib_a-fwalk.o)
 .bss           0x0000000000000000        0x0 /usr/lib/gcc/arm-none-eabi/10.3.1/../../../arm-none-eabi/lib/thumb/v7e-m+fp/hard/libg.a(lib_a-fwalk.o)
 .data          0x0000000000000000        0x0 /usr/lib/gcc/arm-none-eabi/10.3.1/../../../arm-none-eabi/lib/thumb/v7e-m+fp/hard/libg.a(lib_a-localeconv.o)
 .bss           0x0000000000000000        0x0 /usr/lib/gcc/arm-none-eabi/10.3.1/../../../arm-none-eabi/lib/thumb/v7e-m+fp/hard/libg.a(lib_a-localeconv.o)
 .data          0x0000000000000000        0x0 /usr/lib/gcc/arm-none-eabi/10.3.1/../../../arm-none-eabi/lib/thumb/v7e-m+fp/hard/libg.a(lib_a-makebuf.o)
 .bss           0x0000000000000000        0x0 /usr/lib/gcc/arm-none-eabi/10.3.1/../../../arm-none-eabi/lib/thumb/v7e-m+fp/hard/libg.a(lib_a-makebuf.o)
 .data          0x0000000000000000        0x0 /usr/lib/gcc/arm-none-eabi/10.3.1/../../../arm-none-eabi/lib/thumb/v7e-m+fp/hard/libg.a(lib_a-malloc.o)
 .bss           0x0000000000000000        0x0 /usr/lib/gcc/arm-none-eabi/10.3.1/../../../arm-none-eabi/lib/thumb/v7e-m+fp/hard/libg.a(lib_a-malloc.o)
 .data          0x0000000000000000        0x0 /usr/lib/gcc/arm-none-eabi/10.3.1/../../../arm-none-eabi/lib/thumb/v7e-m+fp/hard/libg.a(lib_a-memchr.o)
 .bss           0x0000000000000000        0x0 /usr/lib/gcc/arm-none-eabi/10.3.1/../../../arm-none-eabi/lib/thumb/v7e-m+fp/hard/libg.a(lib_a-memchr.o)
 .data          0x0000000000000000        0x0 /usr/lib/gcc/arm-none-eabi/10.3.1/../../../arm-none-eabi/lib/thumb/v7e-m+fp/hard/libg.a(lib_a-memcpy.o)
 .bss           0x0000000000000000        0x0 /usr/lib/gcc/arm-none-eabi/10.3.1/../../../arm-none-eabi/lib/thumb/v7e-m+fp/hard/libg.a(lib_a-memcpy.o)
 .data          0x0000000000000000        0x0 /usr/lib/gcc/arm-none-eabi/10.3.1/../../../arm-none-eabi/lib/thumb/v7e-m+fp/hard/libg.a(lib_a-memmove.o)
 .bss           0x0000000000000000        0x0 /usr/lib/gcc/arm-none-eabi/10.3.1/../../../arm-none-eabi/lib/thumb/v7e-m+fp/hard/libg.a(lib_a-memmove.o)
 .data          0x0000000000000000        0x0 /usr/lib/gcc/arm-none-eabi/10.3.1/../../../arm-none-eabi/lib/thumb/v7e-m+fp/hard/libg.a(lib_a-mlock.o)
 .bss           0x0000000000000000        0x0 /usr/lib/gcc/arm-none-eabi/10.3.1/../../../arm-none-eabi/lib/thumb/v7e-m+fp/hard/libg.a(lib_a-mlock.o)
 .data          0x0000000000000000        0x0 /usr/lib/gcc/arm-none-eabi/10.3.1/../../../arm-none-eabi/lib/thumb/v7e-m+fp/hard/libg.a(lib_a-mprec.o)
 .bss           0x0000000000000000        0x0 /usr/lib/gcc/arm-none-eabi/10.3.1/../../../arm-none-eabi/lib/thumb/v7e-m+fp/hard/libg.a(lib_a-mprec.o)
 .data          0x0000000000000000        0x0 /usr/lib/gcc/arm-none-eabi/10.3.1/../../../arm-none-eabi/lib/thumb/v7e-m+fp/hard/libg.a(lib_a-putc.o)
 .bss           0x0000000000000000        0x0 /usr/lib/gcc/arm-none-eabi/10.3.1/../../../arm-none-eabi/lib/thumb/v7e-m+fp/hard/libg.a(lib_a-putc.o)
 .data          0x0000000000000000        0x0 /usr/lib/gcc/arm-none-eabi/10.3.1/../../../arm-none-eabi/lib/thumb/v7e-m+fp/hard/libg.a(lib_a-reallocr.o)
 .bss           0x0000000000000000        0x0 /usr/lib/gcc/arm-none-eabi/10.3.1/../../../arm-none-eabi/lib/thumb/v7e-m+fp/hard/libg.a(lib_a-reallocr.o)
 .data          0x0000000000000000        0x0 /usr/lib/gcc/arm-none-eabi/10.3.1/../../../arm-none-eabi/lib/thumb/v7e-m+fp/hard/libg.a(lib_a-stdio.o)
 .bss           0x0000000000000000        0x0 /usr/lib/gcc/arm-none-eabi/10.3.1/../../../arm-none-eabi/lib/thumb/v7e-m+fp/hard/libg.a(lib_a-stdio.o)
 .data          0x0000000000000000        0x0 /usr/lib/gcc/arm-none-eabi/10.3.1/../../../arm-none-eabi/lib/thumb/v7e-m+fp/hard/libg.a(lib_a-vfiprintf.o)
 .bss           0x0000000000000000        0x0 /usr/lib/gcc/arm-none-eabi/10.3.1/../../../arm-none-eabi/lib/thumb/v7e-m+fp/hard/libg.a(lib_a-vfiprintf.o)
 .data          0x0000000000000000        0x0 /usr/lib/gcc/arm-none-eabi/10.3.1/../../../arm-none-eabi/lib/thumb/v7e-m+fp/hard/libg.a(lib_a-wbuf.o)
 .bss           0x0000000000000000        0x0 /usr/lib/gcc/arm-none-eabi/10.3.1/../../../arm-none-eabi/lib/thumb/v7e-m+fp/hard/libg.a(lib_a-wbuf.o)
 .data          0x0000000000000000        0x0 /usr/lib/gcc/arm-none-eabi/10.3.1/../../../arm-none-eabi/lib/thumb/v7e-m+fp/hard/libg.a(lib_a-assert.o)
 .bss           0x0000000000000000        0x0 /usr/lib/gcc/arm-none-eabi/10.3.1/../../../arm-none-eabi/lib/thumb/v7e-m+fp/hard/libg.a(lib_a-assert.o)
 .data          0x0000000000000000        0x0 /usr/lib/gcc/arm-none-eabi/10.3.1/../../../arm-none-eabi/lib/thumb/v7e-m+fp/hard/libg.a(lib_a-callocr.o)
 .bss           0x0000000000000000        0x0 /usr/lib/gcc/arm-none-eabi/10.3.1/../../../arm-none-eabi/lib/thumb/v7e-m+fp/hard/libg.a(lib_a-callocr.o)
 .data          0x0000000000000000        0x0 /usr/lib/gcc/arm-none-eabi/10.3.1/../../../arm-none-eabi/lib/thumb/v7e-m+fp/hard/libg.a(lib_a-fclose.o)
 .bss           0x0000000000000000        0x0 /usr/lib/gcc/arm-none-eabi/10.3.1/../../../arm-none-eabi/lib/thumb/v7e-m+fp/hard/libg.a(lib_a-fclose.o)
 .data          0x0000000000000000        0x0 /usr/lib/gcc/arm-none-eabi/10.3.1/../../../arm-none-eabi/lib/thumb/v7e-m+fp/hard/libg.a(lib_a-fiprintf.o)
 .bss           0x0000000000000000        0x0 /usr/lib/gcc/arm-none-eabi/10.3.1/../../../arm-none-eabi/lib/thumb/v7e-m+fp/hard/libg.a(lib_a-fiprintf.o)
 .data          0x0000000000000000        0x0 /usr/lib/gcc/arm-none-eabi/10.3.1/../../../arm-none-eabi/lib/thumb/v7e-m+fp/hard/libg.a(lib_a-fputwc.o)
 .bss           0x0000000000000000        0x0 /usr/lib/gcc/arm-none-eabi/10.3.1/../../../arm-none-eabi/lib/thumb/v7e-m+fp/hard/libg.a(lib_a-fputwc.o)
 .bss           0x0000000000000000        0x4 /usr/lib/gcc/arm-none-eabi/10.3.1/../../../arm-none-eabi/lib/thumb/v7e-m+fp/hard/libg.a(lib_a-locale.o)
 .data          0x0000000000000000        0x0 /usr/lib/gcc/arm-none-eabi/10.3.1/../../../arm-none-eabi/lib/thumb/v7e-m+fp/hard/libg.a(lib_a-mbtowc_r.o)
 .bss           0x0000000000000000        0x0 /usr/lib/gcc/arm-none-eabi/10.3.1/../../../arm-none-eabi/lib/thumb/v7e-m+fp/hard/libg.a(lib_a-mbtowc_r.o)
 .data          0x0000000000000000        0x0 /usr/lib/gcc/arm-none-eabi/10.3.1/../../../arm-none-eabi/lib/thumb/v7e-m+fp/hard/libg.a(lib_a-strcmp.o)
 .bss           0x0000000000000000        0x0 /usr/lib/gcc/arm-none-eabi/10.3.1/../../../arm-none-eabi/lib/thumb/v7e-m+fp/hard/libg.a(lib_a-strcmp.o)
 .data          0x0000000000000000        0x0 /usr/lib/gcc/arm-none-eabi/10.3.1/../../../arm-none-eabi/lib/thumb/v7e-m+fp/hard/libg.a(lib_a-wcrtomb.o)
 .bss           0x0000000000000000        0x0 /usr/lib/gcc/arm-none-eabi/10.3.1/../../../arm-none-eabi/lib/thumb/v7e-m+fp/hard/libg.a(lib_a-wcrtomb.o)
 .data          0x0000000000000000        0x0 /usr/lib/gcc/arm-none-eabi/10.3.1/../../../arm-none-eabi/lib/thumb/v7e-m+fp/hard/libg.a(lib_a-wctomb_r.o)
 .bss           0x0000000000000000        0x0 /usr/lib/gcc/arm-none-eabi/10.3.1/../../../arm-none-eabi/lib/thumb/v7e-m+fp/hard/libg.a(lib_a-wctomb_r.o)
 .data          0x0000000000000000        0x0 /usr/lib/gcc/arm-none-eabi/10.3.1/../../../arm-none-eabi/lib/thumb/v7e-m+fp/hard/libg.a(lib_a-abort.o)
 .bss           0x0000000000000000        0x0 /usr/lib/gcc/arm-none-eabi/10.3.1/../../../arm-none-eabi/lib/thumb/v7e-m+fp/hard/libg.a(lib_a-abort.o)
 .data          0x0000000000000000        0x0 /usr/lib/gcc/arm-none-eabi/10.3.1/../../../arm-none-eabi/lib/thumb/v7e-m+fp/hard/libg.a(lib_a-signal.o)
 .bss           0x0000000000000000        0x0 /usr/lib/gcc/arm-none-eabi/10.3.1/../../../arm-none-eabi/lib/thumb/v7e-m+fp/hard/libg.a(lib_a-signal.o)
 .data          0x0000000000000000        0x0 /usr/lib/gcc/arm-none-eabi/10.3.1/../../../arm-none-eabi/lib/thumb/v7e-m+fp/hard/libg.a(lib_a-signalr.o)
 .bss           0x0000000000000000        0x0 /usr/lib/gcc/arm-none-eabi/10.3.1/../../../arm-none-eabi/lib/thumb/v7e-m+fp/hard/libg.a(lib_a-signalr.o)
 .text          0x0000000000000000       0xd8 /usr/lib/gcc/arm-none-eabi/10.3.1/../../../arm-none-eabi/lib/thumb/v7e-m+fp/hard/libg.a(lib_a-reent.o)
 .data          0x0000000000000000        0x0 /usr/lib/gcc/arm-none-eabi/10.3.1/../../../arm-none-eabi/lib/thumb/v7e-m+fp/hard/libg.a(lib_a-reent.o)
 .text          0x0000000000000000      0x254 /usr/lib/gcc/arm-none-eabi/10.3.1/thumb/v7e-m+fp/hard/libgcc.a(_arm_muldf3.o)
 .data          0x0000000000000000        0x0 /usr/lib/gcc/arm-none-eabi/10.3.1/thumb/v7e-m+fp/hard/libgcc.a(_arm_muldf3.o)
 .bss           0x0000000000000000        0x0 /usr/lib/gcc/arm-none-eabi/10.3.1/thumb/v7e-m+fp/hard/libgcc.a(_arm_muldf3.o)
 .debug_line    0x0000000000000000      0x10c /usr/lib/gcc/arm-none-eabi/10.3.1/thumb/v7e-m+fp/hard/libgcc.a(_arm_muldf3.o)
 .debug_info    0x0000000000000000       0x26 /usr/lib/gcc/arm-none-eabi/10.3.1/thumb/v7e-m+fp/hard/libgcc.a(_arm_muldf3.o)
 .debug_abbrev  0x0000000000000000       0x14 /usr/lib/gcc/arm-none-eabi/10.3.1/thumb/v7e-m+fp/hard/libgcc.a(_arm_muldf3.o)
 .debug_aranges
                0x0000000000000000       0x20 /usr/lib/gcc/arm-none-eabi/10.3.1/thumb/v7e-m+fp/hard/libgcc.a(_arm_muldf3.o)
 .debug_str     0x0000000000000000       0xab /usr/lib/gcc/arm-none-eabi/10.3.1/thumb/v7e-m+fp/hard/libgcc.a(_arm_muldf3.o)
 .debug_frame   0x0000000000000000       0x30 /usr/lib/gcc/arm-none-eabi/10.3.1/thumb/v7e-m+fp/hard/libgcc.a(_arm_muldf3.o)
 .ARM.attributes
                0x0000000000000000       0x1e /usr/lib/gcc/arm-none-eabi/10.3.1/thumb/v7e-m+fp/hard/libgcc.a(_arm_muldf3.o)
 .data          0x0000000000000000        0x0 /usr/lib/gcc/arm-none-eabi/10.3.1/thumb/v7e-m+fp/hard/libgcc.a(_arm_addsubdf3.o)
 .bss           0x0000000000000000        0x0 /usr/lib/gcc/arm-none-eabi/10.3.1/thumb/v7e-m+fp/hard/libgcc.a(_arm_addsubdf3.o)
 .data          0x0000000000000000        0x0 /usr/lib/gcc/arm-none-eabi/10.3.1/thumb/v7e-m+fp/hard/libgcc.a(_arm_muldivdf3.o)
 .bss           0x0000000000000000        0x0 /usr/lib/gcc/arm-none-eabi/10.3.1/thumb/v7e-m+fp/hard/libgcc.a(_arm_muldivdf3.o)
 .data          0x0000000000000000        0x0 /usr/lib/gcc/arm-none-eabi/10.3.1/thumb/v7e-m+fp/hard/libgcc.a(_arm_cmpdf2.o)
 .bss           0x0000000000000000        0x0 /usr/lib/gcc/arm-none-eabi/10.3.1/thumb/v7e-m+fp/hard/libgcc.a(_arm_cmpdf2.o)
 .data          0x0000000000000000        0x0 /usr/lib/gcc/arm-none-eabi/10.3.1/thumb/v7e-m+fp/hard/libgcc.a(_arm_unorddf2.o)
 .bss           0x0000000000000000        0x0 /usr/lib/gcc/arm-none-eabi/10.3.1/thumb/v7e-m+fp/hard/libgcc.a(_arm_unorddf2.o)
 .data          0x0000000000000000        0x0 /usr/lib/gcc/arm-none-eabi/10.3.1/thumb/v7e-m+fp/hard/libgcc.a(_arm_fixdfsi.o)
 .bss           0x0000000000000000        0x0 /usr/lib/gcc/arm-none-eabi/10.3.1/thumb/v7e-m+fp/hard/libgcc.a(_arm_fixdfsi.o)
 .data          0x0000000000000000        0x0 /usr/lib/gcc/arm-none-eabi/10.3.1/thumb/v7e-m+fp/hard/libgcc.a(_aeabi_uldivmod.o)
 .bss           0x0000000000000000        0x0 /usr/lib/gcc/arm-none-eabi/10.3.1/thumb/v7e-m+fp/hard/libgcc.a(_aeabi_uldivmod.o)
 .data          0x0000000000000000        0x0 /usr/lib/gcc/arm-none-eabi/10.3.1/thumb/v7e-m+fp/hard/libgcc.a(_udivmoddi4.o)
 .bss           0x0000000000000000        0x0 /usr/lib/gcc/arm-none-eabi/10.3.1/thumb/v7e-m+fp/hard/libgcc.a(_udivmoddi4.o)
 .ARM.extab     0x0000000000000000        0x0 /usr/lib/gcc/arm-none-eabi/10.3.1/thumb/v7e-m+fp/hard/libgcc.a(_udivmoddi4.o)
 .data          0x0000000000000000        0x0 /usr/lib/gcc/arm-none-eabi/10.3.1/thumb/v7e-m+fp/hard/libgcc.a(_dvmd_tls.o)
 .bss           0x0000000000000000        0x0 /usr/lib/gcc/arm-none-eabi/10.3.1/thumb/v7e-m+fp/hard/libgcc.a(_dvmd_tls.o)
 .data          0x0000000000000000        0x0 /usr/lib/gcc/arm-none-eabi/10.3.1/../../../arm-none-eabi/lib/thumb/v7e-m+fp/hard/libnosys.a(getpid.o)
 .bss           0x0000000000000000        0x0 /usr/lib/gcc/arm-none-eabi/10.3.1/../../../arm-none-eabi/lib/thumb/v7e-m+fp/hard/libnosys.a(getpid.o)
 .data          0x0000000000000000        0x0 /usr/lib/gcc/arm-none-eabi/10.3.1/../../../arm-none-eabi/lib/thumb/v7e-m+fp/hard/libnosys.a(kill.o)
 .bss           0x0000000000000000        0x0 /usr/lib/gcc/arm-none-eabi/10.3.1/../../../arm-none-eabi/lib/thumb/v7e-m+fp/hard/libnosys.a(kill.o)
 .data          0x0000000000000000        0x0 /usr/lib/gcc/arm-none-eabi/10.3.1/../../../arm-none-eabi/lib/thumb/v7e-m+fp/hard/libnosys.a(_exit.o)
 .bss           0x0000000000000000        0x0 /usr/lib/gcc/arm-none-eabi/10.3.1/../../../arm-none-eabi/lib/thumb/v7e-m+fp/hard/libnosys.a(_exit.o)
 .text          0x0000000000000000        0x0 /usr/lib/gcc/arm-none-eabi/10.3.1/thumb/v7e-m+fp/hard/crtend.o
 .data          0x0000000000000000        0x0 /usr/lib/gcc/arm-none-eabi/10.3.1/thumb/v7e-m+fp/hard/crtend.o
 .bss           0x0000000000000000        0x0 /usr/lib/gcc/arm-none-eabi/10.3.1/thumb/v7e-m+fp/hard/crtend.o
 .rodata        0x0000000000000000       0x24 /usr/lib/gcc/arm-none-eabi/10.3.1/thumb/v7e-m+fp/hard/crtend.o
 .eh_frame      0x0000000000000000        0x4 /usr/lib/gcc/arm-none-eabi/10.3.1/thumb/v7e-m+fp/hard/crtend.o
 .text          0x0000000000000000        0x0 /usr/lib/gcc/arm-none-eabi/10.3.1/thumb/v7e-m+fp/hard/crtn.o
 .data          0x0000000000000000        0x0 /usr/lib/gcc/arm-none-eabi/10.3.1/thumb/v7e-m+fp/hard/crtn.o
 .bss           0x0000000000000000        0x0 /usr/lib/gcc/arm-none-eabi/10.3.1/thumb/v7e-m+fp/hard/crtn.o

Memory Configuration

Name             Origin             Length             Attributes
FLASH            0x0000000008000000 0x0000000000040000 xr
RAM              0x0000000020000000 0x000000000000a000 xrw
CCMRAM           0x0000000010000000 0x0000000000002000 rw
*default*        0x0000000000000000 0xffffffffffffffff

Linker script and memory map

LOAD /usr/lib/gcc/arm-none-eabi/10.3.1/thumb/v7e-m+fp/hard/crti.o
LOAD /usr/lib/gcc/arm-none-eabi/10.3.1/thumb/v7e-m+fp/hard/crtbegin.o
LOAD /usr/lib/gcc/arm-none-eabi/10.3.1/../../../arm-none-eabi/lib/thumb/v7e-m+fp/hard/crt0.o
LOAD build/main.o
LOAD build/mycode.o
LOAD build/mytest.o
LOAD build/mes/pt_hook.o
LOAD build/mes/pt_asm.o
LOAD build/monitor.o
LOAD build/parser.o
LOAD build/dump.o
LOAD build/syscall.o
LOAD build/terminal.o
LOAD build/decoder/decoder.o
LOAD build/decoder/STM32F30x_decoder.o
LOAD build/Drivers/CMSIS/Device/ST/STM32F3xx/Source/Templates/system_stm32f3xx.o
LOAD build/Drivers/STM32F3xx_HAL_Driver/Src/stm32f3xx_hal_rcc.o
LOAD build/Drivers/STM32F3xx_HAL_Driver/Src/stm32f3xx_hal.o
LOAD build/Drivers/STM32F3xx_HAL_Driver/Src/stm32f3xx_hal_cortex.o
LOAD build/Drivers/STM32F3xx_HAL_Driver/Src/stm32f3xx_hal_uart.o
LOAD build/Drivers/STM32F3xx_HAL_Driver/Src/stm32f3xx_hal_gpio.o
LOAD build/Drivers/STM32F3xx_HAL_Driver/Src/stm32f3xx_hal_pcd.o
LOAD build/Drivers/STM32F3xx_HAL_Driver/Src/stm32f3xx_hal_pcd_ex.o
LOAD build/Drivers/STM32F3xx_HAL_Driver/Src/stm32f3xx_hal_i2c.o
LOAD build/Drivers/STM32F3xx_HAL_Driver/Src/stm32f3xx_hal_spi.o
LOAD build/Drivers/STM32_USB_Device_Library/Core/Src/usbd_core.o
LOAD build/Drivers/STM32_USB_Device_Library/Core/Src/usbd_ctlreq.o
LOAD build/Drivers/STM32_USB_Device_Library/Core/Src/usbd_ioreq.o
LOAD build/Drivers/STM32_USB_Device_Library/Class/CDC/Src/usbd_cdc.o
LOAD build/usbd_conf.o
LOAD build/usbd_desc.o
LOAD build/usbd_cdc_interface.o
LOAD build/Drivers/BSP/STM32F3-Discovery/stm32f3_discovery.o
LOAD build/Drivers/BSP/STM32F3-Discovery/stm32f3_discovery_accelerometer.o
LOAD build/Drivers/BSP/STM32F3-Discovery/stm32f3_discovery_gyroscope.o
LOAD build/Drivers/BSP/Components/lsm303dlhc/lsm303dlhc.o
LOAD build/Drivers/BSP/Components/l3gd20/l3gd20.o
LOAD build/Drivers/BSP/Components/i3g4250d/i3g4250d.o
LOAD build/Drivers/BSP/Components/lsm303agr/lsm303agr.o
LOAD build/Drivers/CMSIS/Device/ST/STM32F3xx/Source/Templates/gcc/startup_stm32f303xc.o
START GROUP
LOAD /usr/lib/gcc/arm-none-eabi/10.3.1/thumb/v7e-m+fp/hard/libgcc.a
LOAD /usr/lib/gcc/arm-none-eabi/10.3.1/../../../arm-none-eabi/lib/thumb/v7e-m+fp/hard/libg.a
LOAD /usr/lib/gcc/arm-none-eabi/10.3.1/../../../arm-none-eabi/lib/thumb/v7e-m+fp/hard/libc.a
END GROUP
START GROUP
LOAD /usr/lib/gcc/arm-none-eabi/10.3.1/thumb/v7e-m+fp/hard/libgcc.a
LOAD /usr/lib/gcc/arm-none-eabi/10.3.1/../../../arm-none-eabi/lib/thumb/v7e-m+fp/hard/libc.a
LOAD /usr/lib/gcc/arm-none-eabi/10.3.1/../../../arm-none-eabi/lib/thumb/v7e-m+fp/hard/libnosys.a
END GROUP
LOAD /usr/lib/gcc/arm-none-eabi/10.3.1/thumb/v7e-m+fp/hard/crtend.o
LOAD /usr/lib/gcc/arm-none-eabi/10.3.1/thumb/v7e-m+fp/hard/crtn.o
                0x0000000020008000                _estack = 0x20008000
                0x0000000000001000                _Min_Heap_Size = 0x1000
                0x0000000000000400                _Min_Stack_Size = 0x400

.isr_vector     0x0000000008000000      0x188
                0x0000000008000000                . = ALIGN (0x4)
 *(.isr_vector)
 .isr_vector    0x0000000008000000      0x188 build/Drivers/CMSIS/Device/ST/STM32F3xx/Source/Templates/gcc/startup_stm32f303xc.o
                0x0000000008000000                g_pfnVectors
                0x0000000008000188                . = ALIGN (0x4)

.text           0x00000000080001c0     0xc4fc
                0x00000000080001c0                . = ALIGN (0x4)
 *(.text)
 .text          0x00000000080001c0       0x88 /usr/lib/gcc/arm-none-eabi/10.3.1/thumb/v7e-m+fp/hard/crtbegin.o
 .text          0x0000000008000248       0x38 build/mycode.o
                0x0000000008000248                mytest
                0x0000000008000260                my_Tick
                0x0000000008000274                my_Loop
                0x0000000008000278                my_Init
 .text          0x0000000008000280       0x38 build/mes/pt_asm.o
                0x0000000008000280                add_test
                0x000000000800029c                busy_delay
 .text          0x00000000080002b8        0xc /usr/lib/gcc/arm-none-eabi/10.3.1/../../../arm-none-eabi/lib/thumb/v7e-m+fp/hard/libg.a(lib_a-atexit.o)
                0x00000000080002b8                atexit
 .text          0x00000000080002c4        0xc /usr/lib/gcc/arm-none-eabi/10.3.1/../../../arm-none-eabi/lib/thumb/v7e-m+fp/hard/libg.a(lib_a-errno.o)
                0x00000000080002c4                __errno
 .text          0x00000000080002d0       0x2c /usr/lib/gcc/arm-none-eabi/10.3.1/../../../arm-none-eabi/lib/thumb/v7e-m+fp/hard/libg.a(lib_a-fini.o)
                0x00000000080002d0                __libc_fini_array
 .text          0x00000000080002fc       0x48 /usr/lib/gcc/arm-none-eabi/10.3.1/../../../arm-none-eabi/lib/thumb/v7e-m+fp/hard/libg.a(lib_a-init.o)
                0x00000000080002fc                __libc_init_array
 .text          0x0000000008000344       0xa4 /usr/lib/gcc/arm-none-eabi/10.3.1/../../../arm-none-eabi/lib/thumb/v7e-m+fp/hard/libg.a(lib_a-memset.o)
                0x0000000008000344                memset
 .text          0x00000000080003e8       0x48 /usr/lib/gcc/arm-none-eabi/10.3.1/../../../arm-none-eabi/lib/thumb/v7e-m+fp/hard/libg.a(lib_a-printf.o)
                0x00000000080003e8                _printf_r
                0x0000000008000408                printf
 .text          0x0000000008000430       0x18 /usr/lib/gcc/arm-none-eabi/10.3.1/../../../arm-none-eabi/lib/thumb/v7e-m+fp/hard/libg.a(lib_a-putchar.o)
                0x0000000008000430                _putchar_r
                0x0000000008000438                putchar
 .text          0x0000000008000448       0x78 /usr/lib/gcc/arm-none-eabi/10.3.1/../../../arm-none-eabi/lib/thumb/v7e-m+fp/hard/libg.a(lib_a-puts.o)
                0x0000000008000448                _puts_r
                0x00000000080004b0                puts
 .text          0x00000000080004c0      0x174 /usr/lib/gcc/arm-none-eabi/10.3.1/../../../arm-none-eabi/lib/thumb/v7e-m+fp/hard/libg.a(lib_a-setvbuf.o)
                0x00000000080004c0                setvbuf
 .text          0x0000000008000634       0x4c /usr/lib/gcc/arm-none-eabi/10.3.1/../../../arm-none-eabi/lib/thumb/v7e-m+fp/hard/libg.a(lib_a-strcasecmp.o)
                0x0000000008000634                strcasecmp
 .text          0x0000000008000680       0xbc /usr/lib/gcc/arm-none-eabi/10.3.1/../../../arm-none-eabi/lib/thumb/v7e-m+fp/hard/libg.a(lib_a-strcpy.o)
                0x0000000008000680                strcpy
 *fill*         0x000000000800073c        0x4 
 .text          0x0000000008000740       0xdc /usr/lib/gcc/arm-none-eabi/10.3.1/../../../arm-none-eabi/lib/thumb/v7e-m+fp/hard/libg.a(lib_a-strlen.o)
                0x0000000008000740                strlen
 .text          0x000000000800081c       0x10 /usr/lib/gcc/arm-none-eabi/10.3.1/../../../arm-none-eabi/lib/thumb/v7e-m+fp/hard/libg.a(lib_a-strtok.o)
                0x000000000800081c                strtok
 .text          0x000000000800082c       0x6c /usr/lib/gcc/arm-none-eabi/10.3.1/../../../arm-none-eabi/lib/thumb/v7e-m+fp/hard/libg.a(lib_a-strtok_r.o)
                0x000000000800082c                __strtok_r
                0x0000000008000890                strtok_r
 .text          0x0000000008000898      0x170 /usr/lib/gcc/arm-none-eabi/10.3.1/../../../arm-none-eabi/lib/thumb/v7e-m+fp/hard/libg.a(lib_a-strtoul.o)
                0x00000000080009d4                _strtoul_r
                0x00000000080009d8                strtoul_l
                0x00000000080009f0                strtoul
 .text          0x0000000008000a08     0x159c /usr/lib/gcc/arm-none-eabi/10.3.1/../../../arm-none-eabi/lib/thumb/v7e-m+fp/hard/libg.a(lib_a-vfprintf.o)
                0x0000000008000a08                _vfprintf_r
                0x0000000008001f1c                vfprintf
 .text          0x0000000008001fa4       0xd4 /usr/lib/gcc/arm-none-eabi/10.3.1/../../../arm-none-eabi/lib/thumb/v7e-m+fp/hard/libg.a(lib_a-wsetup.o)
                0x0000000008001fa4                __swsetup_r
 .text          0x0000000008002078       0x68 /usr/lib/gcc/arm-none-eabi/10.3.1/../../../arm-none-eabi/lib/thumb/v7e-m+fp/hard/libg.a(lib_a-__atexit.o)
                0x0000000008002078                __register_exitproc
 .text          0x00000000080020e0     0x1064 /usr/lib/gcc/arm-none-eabi/10.3.1/../../../arm-none-eabi/lib/thumb/v7e-m+fp/hard/libg.a(lib_a-dtoa.o)
                0x0000000008002208                _dtoa_r
 .text          0x0000000008003144      0x1ac /usr/lib/gcc/arm-none-eabi/10.3.1/../../../arm-none-eabi/lib/thumb/v7e-m+fp/hard/libg.a(lib_a-fflush.o)
                0x0000000008003144                __sflush_r
                0x0000000008003274                _fflush_r
                0x00000000080032a0                fflush
 .text          0x00000000080032f0      0x218 /usr/lib/gcc/arm-none-eabi/10.3.1/../../../arm-none-eabi/lib/thumb/v7e-m+fp/hard/libg.a(lib_a-findfp.o)
                0x00000000080032f4                _cleanup_r
                0x00000000080033dc                __sfmoreglue
                0x000000000800340c                __sfp
                0x00000000080034b4                _cleanup
                0x00000000080034c8                __sinit
                0x00000000080034d0                __sfp_lock_acquire
                0x00000000080034d4                __sfp_lock_release
                0x00000000080034d8                __sinit_lock_acquire
                0x00000000080034dc                __sinit_lock_release
                0x00000000080034e0                __fp_lock_all
                0x00000000080034f4                __fp_unlock_all
 .text          0x0000000008003508      0x2ac /usr/lib/gcc/arm-none-eabi/10.3.1/../../../arm-none-eabi/lib/thumb/v7e-m+fp/hard/libg.a(lib_a-freer.o)
                0x0000000008003508                _malloc_trim_r
                0x00000000080035a8                _free_r
 .text          0x00000000080037b4      0x2f0 /usr/lib/gcc/arm-none-eabi/10.3.1/../../../arm-none-eabi/lib/thumb/v7e-m+fp/hard/libg.a(lib_a-fvwrite.o)
                0x00000000080037b4                __sfvwrite_r
 .text          0x0000000008003aa4       0x88 /usr/lib/gcc/arm-none-eabi/10.3.1/../../../arm-none-eabi/lib/thumb/v7e-m+fp/hard/libg.a(lib_a-fwalk.o)
                0x0000000008003aa4                _fwalk
                0x0000000008003ae4                _fwalk_reent
 .text          0x0000000008003b2c       0x14 /usr/lib/gcc/arm-none-eabi/10.3.1/../../../arm-none-eabi/lib/thumb/v7e-m+fp/hard/libg.a(lib_a-localeconv.o)
                0x0000000008003b2c                __localeconv_l
                0x0000000008003b30                _localeconv_r
                0x0000000008003b38                localeconv
 .text          0x0000000008003b40      0x140 /usr/lib/gcc/arm-none-eabi/10.3.1/../../../arm-none-eabi/lib/thumb/v7e-m+fp/hard/libg.a(lib_a-makebuf.o)
                0x0000000008003b40                __smakebuf_r
                0x0000000008003c20                __swhatbuf_r
 .text          0x0000000008003c80       0x20 /usr/lib/gcc/arm-none-eabi/10.3.1/../../../arm-none-eabi/lib/thumb/v7e-m+fp/hard/libg.a(lib_a-malloc.o)
                0x0000000008003c80                malloc
                0x0000000008003c90                free
 .text          0x0000000008003ca0      0x554 /usr/lib/gcc/arm-none-eabi/10.3.1/../../../arm-none-eabi/lib/thumb/v7e-m+fp/hard/libg.a(lib_a-mallocr.o)
                0x0000000008003ca0                _malloc_r
 *fill*         0x00000000080041f4        0xc 
 .text          0x0000000008004200       0xa0 /usr/lib/gcc/arm-none-eabi/10.3.1/../../../arm-none-eabi/lib/thumb/v7e-m+fp/hard/libg.a(lib_a-memchr.o)
                0x0000000008004200                memchr
 .text          0x00000000080042a0      0x134 /usr/lib/gcc/arm-none-eabi/10.3.1/../../../arm-none-eabi/lib/thumb/v7e-m+fp/hard/libg.a(lib_a-memcpy.o)
                0x00000000080042a0                memcpy
 .text          0x00000000080043d4       0xf8 /usr/lib/gcc/arm-none-eabi/10.3.1/../../../arm-none-eabi/lib/thumb/v7e-m+fp/hard/libg.a(lib_a-memmove.o)
                0x00000000080043d4                memmove
 .text          0x00000000080044cc        0x8 /usr/lib/gcc/arm-none-eabi/10.3.1/../../../arm-none-eabi/lib/thumb/v7e-m+fp/hard/libg.a(lib_a-mlock.o)
                0x00000000080044cc                __malloc_lock
                0x00000000080044d0                __malloc_unlock
 .text          0x00000000080044d4      0xaa0 /usr/lib/gcc/arm-none-eabi/10.3.1/../../../arm-none-eabi/lib/thumb/v7e-m+fp/hard/libg.a(lib_a-mprec.o)
                0x00000000080044d4                _Balloc
                0x0000000008004520                _Bfree
                0x0000000008004534                __multadd
                0x00000000080045dc                __s2b
                0x0000000008004690                __hi0bits
                0x00000000080046d0                __lo0bits
                0x0000000008004730                __i2b
                0x000000000800478c                __multiply
                0x00000000080048e8                __pow5mult
                0x00000000080049a8                __lshift
                0x0000000008004a98                __mcmp
                0x0000000008004adc                __mdiff
                0x0000000008004c28                __ulp
                0x0000000008004c88                __b2d
                0x0000000008004d48                __d2b
                0x0000000008004e18                __ratio
                0x0000000008004e74                _mprec_log10
                0x0000000008004eb4                __copybits
                0x0000000008004f10                __any_on
 .text          0x0000000008004f74       0xb8 /usr/lib/gcc/arm-none-eabi/10.3.1/../../../arm-none-eabi/lib/thumb/v7e-m+fp/hard/libg.a(lib_a-putc.o)
                0x0000000008004f74                _putc_r
                0x0000000008004fcc                putc
 .text          0x000000000800502c      0x3d8 /usr/lib/gcc/arm-none-eabi/10.3.1/../../../arm-none-eabi/lib/thumb/v7e-m+fp/hard/libg.a(lib_a-reallocr.o)
                0x000000000800502c                _realloc_r
 .text          0x0000000008005404       0x90 /usr/lib/gcc/arm-none-eabi/10.3.1/../../../arm-none-eabi/lib/thumb/v7e-m+fp/hard/libg.a(lib_a-stdio.o)
                0x0000000008005404                __sread
                0x0000000008005428                __seofread
                0x000000000800542c                __swrite
                0x000000000800546c                __sseek
                0x000000000800548c                __sclose
 .text          0x0000000008005494      0xd44 /usr/lib/gcc/arm-none-eabi/10.3.1/../../../arm-none-eabi/lib/thumb/v7e-m+fp/hard/libg.a(lib_a-vfiprintf.o)
                0x000000000800550c                __sprint_r
                0x0000000008005524                _vfiprintf_r
                0x0000000008006150                vfiprintf
 .text          0x00000000080061d8       0xc8 /usr/lib/gcc/arm-none-eabi/10.3.1/../../../arm-none-eabi/lib/thumb/v7e-m+fp/hard/libg.a(lib_a-wbuf.o)
                0x00000000080061d8                __swbuf_r
                0x0000000008006288                __swbuf
 .text          0x00000000080062a0       0x4c /usr/lib/gcc/arm-none-eabi/10.3.1/../../../arm-none-eabi/lib/thumb/v7e-m+fp/hard/libg.a(lib_a-assert.o)
                0x00000000080062a0                __assert_func
                0x00000000080062e0                __assert
 .text          0x00000000080062ec       0x60 /usr/lib/gcc/arm-none-eabi/10.3.1/../../../arm-none-eabi/lib/thumb/v7e-m+fp/hard/libg.a(lib_a-callocr.o)
                0x00000000080062ec                _calloc_r
 .text          0x000000000800634c       0xd4 /usr/lib/gcc/arm-none-eabi/10.3.1/../../../arm-none-eabi/lib/thumb/v7e-m+fp/hard/libg.a(lib_a-fclose.o)
                0x00000000080063b0                _fclose_r
                0x00000000080063e4                fclose
 .text          0x0000000008006420       0x44 /usr/lib/gcc/arm-none-eabi/10.3.1/../../../arm-none-eabi/lib/thumb/v7e-m+fp/hard/libg.a(lib_a-fiprintf.o)
                0x0000000008006420                _fiprintf_r
                0x000000000800643c                fiprintf
 .text          0x0000000008006464      0x118 /usr/lib/gcc/arm-none-eabi/10.3.1/../../../arm-none-eabi/lib/thumb/v7e-m+fp/hard/libg.a(lib_a-fputwc.o)
                0x0000000008006464                __fputwc
                0x000000000800650c                _fputwc_r
                0x0000000008006534                fputwc
 .text          0x000000000800657c       0x8c /usr/lib/gcc/arm-none-eabi/10.3.1/../../../arm-none-eabi/lib/thumb/v7e-m+fp/hard/libg.a(lib_a-locale.o)
                0x000000000800657c                _setlocale_r
                0x00000000080065bc                __locale_mb_cur_max
                0x00000000080065c8                setlocale
 .text          0x0000000008006608       0x40 /usr/lib/gcc/arm-none-eabi/10.3.1/../../../arm-none-eabi/lib/thumb/v7e-m+fp/hard/libg.a(lib_a-mbtowc_r.o)
                0x0000000008006608                _mbtowc_r
                0x000000000800661c                __ascii_mbtowc
 *fill*         0x0000000008006648       0x18 
 .text          0x0000000008006660      0x2dc /usr/lib/gcc/arm-none-eabi/10.3.1/../../../arm-none-eabi/lib/thumb/v7e-m+fp/hard/libg.a(lib_a-strcmp.o)
                0x0000000008006668                strcmp
 .text          0x000000000800693c       0x88 /usr/lib/gcc/arm-none-eabi/10.3.1/../../../arm-none-eabi/lib/thumb/v7e-m+fp/hard/libg.a(lib_a-wcrtomb.o)
                0x000000000800693c                _wcrtomb_r
                0x0000000008006978                wcrtomb
 .text          0x00000000080069c4       0x30 /usr/lib/gcc/arm-none-eabi/10.3.1/../../../arm-none-eabi/lib/thumb/v7e-m+fp/hard/libg.a(lib_a-wctomb_r.o)
                0x00000000080069c4                _wctomb_r
                0x00000000080069d8                __ascii_wctomb
 .text          0x00000000080069f4       0x10 /usr/lib/gcc/arm-none-eabi/10.3.1/../../../arm-none-eabi/lib/thumb/v7e-m+fp/hard/libg.a(lib_a-abort.o)
                0x00000000080069f4                abort
 .text          0x0000000008006a04      0x288 /usr/lib/gcc/arm-none-eabi/10.3.1/../../../arm-none-eabi/lib/thumb/v7e-m+fp/hard/libg.a(lib_a-signal.o)
                0x0000000008006a04                _init_signal_r
                0x0000000008006a34                _signal_r
                0x0000000008006a80                _raise_r
                0x0000000008006ad8                __sigtramp_r
                0x0000000008006b3c                raise
                0x0000000008006b98                signal
                0x0000000008006bec                _init_signal
                0x0000000008006c24                __sigtramp
 .text          0x0000000008006c8c       0x30 /usr/lib/gcc/arm-none-eabi/10.3.1/../../../arm-none-eabi/lib/thumb/v7e-m+fp/hard/libg.a(lib_a-signalr.o)
                0x0000000008006c8c                _kill_r
                0x0000000008006cb8                _getpid_r
 .text          0x0000000008006cbc      0x378 /usr/lib/gcc/arm-none-eabi/10.3.1/thumb/v7e-m+fp/hard/libgcc.a(_arm_addsubdf3.o)
                0x0000000008006cbc                __aeabi_drsub
                0x0000000008006cc4                __aeabi_dsub
                0x0000000008006cc4                __subdf3
                0x0000000008006cc8                __adddf3
                0x0000000008006cc8                __aeabi_dadd
                0x0000000008006f40                __aeabi_ui2d
                0x0000000008006f40                __floatunsidf
                0x0000000008006f60                __floatsidf
                0x0000000008006f60                __aeabi_i2d
                0x0000000008006f84                __extendsfdf2
                0x0000000008006f84                __aeabi_f2d
                0x0000000008006fc8                __aeabi_ul2d
                0x0000000008006fc8                __floatundidf
                0x0000000008006fd8                __floatdidf
                0x0000000008006fd8                __aeabi_l2d
 .text          0x0000000008007034      0x424 /usr/lib/gcc/arm-none-eabi/10.3.1/thumb/v7e-m+fp/hard/libgcc.a(_arm_muldivdf3.o)
                0x0000000008007034                __aeabi_dmul
                0x0000000008007034                __muldf3
                0x0000000008007288                __aeabi_ddiv
                0x0000000008007288                __divdf3
 .text          0x0000000008007458      0x110 /usr/lib/gcc/arm-none-eabi/10.3.1/thumb/v7e-m+fp/hard/libgcc.a(_arm_cmpdf2.o)
                0x0000000008007458                __gtdf2
                0x0000000008007458                __gedf2
                0x0000000008007460                __ltdf2
                0x0000000008007460                __ledf2
                0x0000000008007468                __cmpdf2
                0x0000000008007468                __eqdf2
                0x0000000008007468                __nedf2
                0x00000000080074e4                __aeabi_cdrcmple
                0x00000000080074f4                __aeabi_cdcmple
                0x00000000080074f4                __aeabi_cdcmpeq
                0x0000000008007504                __aeabi_dcmpeq
                0x0000000008007518                __aeabi_dcmplt
                0x000000000800752c                __aeabi_dcmple
                0x0000000008007540                __aeabi_dcmpge
                0x0000000008007554                __aeabi_dcmpgt
 .text          0x0000000008007568       0x2c /usr/lib/gcc/arm-none-eabi/10.3.1/thumb/v7e-m+fp/hard/libgcc.a(_arm_unorddf2.o)
                0x0000000008007568                __aeabi_dcmpun
                0x0000000008007568                __unorddf2
 .text          0x0000000008007594       0x50 /usr/lib/gcc/arm-none-eabi/10.3.1/thumb/v7e-m+fp/hard/libgcc.a(_arm_fixdfsi.o)
                0x0000000008007594                __fixdfsi
                0x0000000008007594                __aeabi_d2iz
 .text          0x00000000080075e4       0x30 /usr/lib/gcc/arm-none-eabi/10.3.1/thumb/v7e-m+fp/hard/libgcc.a(_aeabi_uldivmod.o)
                0x00000000080075e4                __aeabi_uldivmod
 .text          0x0000000008007614      0x2d0 /usr/lib/gcc/arm-none-eabi/10.3.1/thumb/v7e-m+fp/hard/libgcc.a(_udivmoddi4.o)
                0x0000000008007614                __udivmoddi4
 .text          0x00000000080078e4        0x4 /usr/lib/gcc/arm-none-eabi/10.3.1/thumb/v7e-m+fp/hard/libgcc.a(_dvmd_tls.o)
                0x00000000080078e4                __aeabi_ldiv0
                0x00000000080078e4                __aeabi_idiv0
 .text          0x00000000080078e8       0x10 /usr/lib/gcc/arm-none-eabi/10.3.1/../../../arm-none-eabi/lib/thumb/v7e-m+fp/hard/libnosys.a(getpid.o)
                0x00000000080078e8                _getpid
 .text          0x00000000080078f8       0x10 /usr/lib/gcc/arm-none-eabi/10.3.1/../../../arm-none-eabi/lib/thumb/v7e-m+fp/hard/libnosys.a(kill.o)
                0x00000000080078f8                _kill
 .text          0x0000000008007908        0x4 /usr/lib/gcc/arm-none-eabi/10.3.1/../../../arm-none-eabi/lib/thumb/v7e-m+fp/hard/libnosys.a(_exit.o)
                0x0000000008007908                _exit
 *(.text*)
 .text.CmdLED   0x000000000800790c       0x5c build/main.o
                0x000000000800790c                CmdLED
 .text.CmdAccel
                0x0000000008007968       0x28 build/main.o
                0x0000000008007968                CmdAccel
 .text.CmdGyro  0x0000000008007990       0x4c build/main.o
                0x0000000008007990                CmdGyro
 .text.CmdButton
                0x00000000080079dc       0x2c build/main.o
                0x00000000080079dc                CmdButton
 .text.Error_Handler
                0x0000000008007a08        0xa build/main.o
                0x0000000008007a08                Error_Handler
 *fill*         0x0000000008007a12        0x2 
 .text.startup.main
                0x0000000008007a14       0x9c build/main.o
                0x0000000008007a14                main
 .text.SysTick_Handler
                0x0000000008007ab0        0xe build/main.o
                0x0000000008007ab0                SysTick_Handler
 *fill*         0x0000000008007abe        0x2 
 .text.CmdTest  0x0000000008007ac0       0x30 build/mytest.o
                0x0000000008007ac0                CmdTest
 .text.AddTest  0x0000000008007af0       0x4c build/mes/pt_hook.o
                0x0000000008007af0                AddTest
 .text.CmdW     0x0000000008007b3c       0x1c build/monitor.o
                0x0000000008007b3c                CmdW
 .text.CmdR     0x0000000008007b58       0x20 build/monitor.o
                0x0000000008007b58                CmdR
 .text.parse    0x0000000008007b78       0xf8 build/parser.o
                0x0000000008007b78                parse
 .text.TaskInput
                0x0000000008007c70      0x13c build/parser.o
                0x0000000008007c70                TaskInput
 .text.fetch_uint32_arg
                0x0000000008007dac       0x28 build/parser.o
                0x0000000008007dac                fetch_uint32_arg
 .text.fetch_string_arg
                0x0000000008007dd4       0x20 build/parser.o
                0x0000000008007dd4                fetch_string_arg
 .text.DumpBuffer
                0x0000000008007df4       0xb0 build/dump.o
                0x0000000008007df4                DumpBuffer
 .text.CmdDump  0x0000000008007ea4       0x54 build/dump.o
                0x0000000008007ea4                CmdDump
 .text._sbrk_r  0x0000000008007ef8       0x30 build/syscall.o
                0x0000000008007ef8                _sbrk_r
 .text._close_r
                0x0000000008007f28        0x6 build/syscall.o
                0x0000000008007f28                _close_r
 .text._fstat_r
                0x0000000008007f2e        0xa build/syscall.o
                0x0000000008007f2e                _fstat_r
 .text._isatty_r
                0x0000000008007f38        0x4 build/syscall.o
                0x0000000008007f38                _isatty_r
 .text._lseek_r
                0x0000000008007f3c        0x4 build/syscall.o
                0x0000000008007f3c                _lseek_r
 .text.USBD_CDC_DataIn
                0x0000000008007f40       0x7c build/terminal.o
 .text.CmdStats
                0x0000000008007fbc       0x4c build/terminal.o
                0x0000000008007fbc                CmdStats
 .text.TerminalInit
                0x0000000008008008       0x7c build/terminal.o
                0x0000000008008008                TerminalInit
 .text.TerminalRead
                0x0000000008008084       0x4c build/terminal.o
                0x0000000008008084                TerminalRead
 .text._read_r  0x00000000080080d0        0xa build/terminal.o
                0x00000000080080d0                _read_r
 .text.TerminalReadNonBlock
                0x00000000080080da       0x10 build/terminal.o
                0x00000000080080da                TerminalReadNonBlock
 .text.TerminalReadAnyNonBlock
                0x00000000080080ea       0x12 build/terminal.o
                0x00000000080080ea                TerminalReadAnyNonBlock
 .text.TerminalOutputBufferWrite
                0x00000000080080fc       0xe8 build/terminal.o
                0x00000000080080fc                TerminalOutputBufferWrite
 .text._write_r
                0x00000000080081e4       0x40 build/terminal.o
                0x00000000080081e4                _write_r
 .text.TerminalInputBufferWrite
                0x0000000008008224       0x64 build/terminal.o
                0x0000000008008224                TerminalInputBufferWrite
 .text.USB_LP_CAN_RX0_IRQHandler
                0x0000000008008288        0xc build/terminal.o
                0x0000000008008288                USB_LP_CAN_RX0_IRQHandler
 .text.Uncompress
                0x0000000008008294       0x7c build/decoder/decoder.o
 .text.DecodeReadRegister
                0x0000000008008310       0x54 build/decoder/decoder.o
                0x0000000008008310                DecodeReadRegister
 .text.DecodeWriteRegister
                0x0000000008008364       0x54 build/decoder/decoder.o
                0x0000000008008364                DecodeWriteRegister
 .text.DecodeField
                0x00000000080083b8       0x50 build/decoder/decoder.o
                0x00000000080083b8                DecodeField
 .text.DecodeRegister
                0x0000000008008408       0x60 build/decoder/decoder.o
                0x0000000008008408                DecodeRegister
 .text.DecodePeripheral
                0x0000000008008468       0x54 build/decoder/decoder.o
                0x0000000008008468                DecodePeripheral
 .text.DecodePrintPeripherals
                0x00000000080084bc       0x54 build/decoder/decoder.o
                0x00000000080084bc                DecodePrintPeripherals
 .text.DecodePrintRegisters
                0x0000000008008510       0x64 build/decoder/decoder.o
                0x0000000008008510                DecodePrintRegisters
 .text.CmdDecode
                0x0000000008008574      0x270 build/decoder/decoder.o
                0x0000000008008574                CmdDecode
 .text.SystemInit
                0x00000000080087e4       0x68 build/Drivers/CMSIS/Device/ST/STM32F3xx/Source/Templates/system_stm32f3xx.o
                0x00000000080087e4                SystemInit
 .text.HAL_RCC_OscConfig
                0x000000000800884c      0x5bc build/Drivers/STM32F3xx_HAL_Driver/Src/stm32f3xx_hal_rcc.o
                0x000000000800884c                HAL_RCC_OscConfig
 .text.HAL_RCC_ClockConfig
                0x0000000008008e08      0x2b0 build/Drivers/STM32F3xx_HAL_Driver/Src/stm32f3xx_hal_rcc.o
                0x0000000008008e08                HAL_RCC_ClockConfig
 .text.HAL_RCC_GetSysClockFreq
                0x00000000080090b8       0x6c build/Drivers/STM32F3xx_HAL_Driver/Src/stm32f3xx_hal_rcc.o
                0x00000000080090b8                HAL_RCC_GetSysClockFreq
 .text.HAL_RCC_GetHCLKFreq
                0x0000000008009124       0x38 build/Drivers/STM32F3xx_HAL_Driver/Src/stm32f3xx_hal_rcc.o
                0x0000000008009124                HAL_RCC_GetHCLKFreq
 .text.HAL_MspInit
                0x000000000800915c        0x2 build/Drivers/STM32F3xx_HAL_Driver/Src/stm32f3xx_hal.o
                0x000000000800915c                HAL_MspInit
 .text.HAL_InitTick
                0x000000000800915e       0x28 build/Drivers/STM32F3xx_HAL_Driver/Src/stm32f3xx_hal.o
                0x000000000800915e                HAL_InitTick
 *fill*         0x0000000008009186        0x2 
 .text.HAL_Init
                0x0000000008009188       0x24 build/Drivers/STM32F3xx_HAL_Driver/Src/stm32f3xx_hal.o
                0x0000000008009188                HAL_Init
 .text.HAL_IncTick
                0x00000000080091ac       0x10 build/Drivers/STM32F3xx_HAL_Driver/Src/stm32f3xx_hal.o
                0x00000000080091ac                HAL_IncTick
 .text.HAL_GetTick
                0x00000000080091bc        0xc build/Drivers/STM32F3xx_HAL_Driver/Src/stm32f3xx_hal.o
                0x00000000080091bc                HAL_GetTick
 .text.HAL_Delay
                0x00000000080091c8       0x1a build/Drivers/STM32F3xx_HAL_Driver/Src/stm32f3xx_hal.o
                0x00000000080091c8                HAL_Delay
 *fill*         0x00000000080091e2        0x2 
 .text.HAL_NVIC_SetPriorityGrouping
                0x00000000080091e4       0x24 build/Drivers/STM32F3xx_HAL_Driver/Src/stm32f3xx_hal_cortex.o
                0x00000000080091e4                HAL_NVIC_SetPriorityGrouping
 .text.HAL_NVIC_SetPriority
                0x0000000008009208       0x68 build/Drivers/STM32F3xx_HAL_Driver/Src/stm32f3xx_hal_cortex.o
                0x0000000008009208                HAL_NVIC_SetPriority
 .text.HAL_NVIC_EnableIRQ
                0x0000000008009270       0x18 build/Drivers/STM32F3xx_HAL_Driver/Src/stm32f3xx_hal_cortex.o
                0x0000000008009270                HAL_NVIC_EnableIRQ
 .text.HAL_SYSTICK_Config
                0x0000000008009288       0x28 build/Drivers/STM32F3xx_HAL_Driver/Src/stm32f3xx_hal_cortex.o
                0x0000000008009288                HAL_SYSTICK_Config
 .text.HAL_GPIO_Init
                0x00000000080092b0      0x188 build/Drivers/STM32F3xx_HAL_Driver/Src/stm32f3xx_hal_gpio.o
                0x00000000080092b0                HAL_GPIO_Init
 .text.HAL_GPIO_ReadPin
                0x0000000008009438        0xc build/Drivers/STM32F3xx_HAL_Driver/Src/stm32f3xx_hal_gpio.o
                0x0000000008009438                HAL_GPIO_ReadPin
 .text.HAL_GPIO_WritePin
                0x0000000008009444        0xa build/Drivers/STM32F3xx_HAL_Driver/Src/stm32f3xx_hal_gpio.o
                0x0000000008009444                HAL_GPIO_WritePin
 .text.HAL_GPIO_TogglePin
                0x000000000800944e        0x8 build/Drivers/STM32F3xx_HAL_Driver/Src/stm32f3xx_hal_gpio.o
                0x000000000800944e                HAL_GPIO_TogglePin
 .text.HAL_PCD_Init
                0x0000000008009456       0x92 build/Drivers/STM32F3xx_HAL_Driver/Src/stm32f3xx_hal_pcd.o
                0x0000000008009456                HAL_PCD_Init
 .text.HAL_PCD_Start
                0x00000000080094e8        0xc build/Drivers/STM32F3xx_HAL_Driver/Src/stm32f3xx_hal_pcd.o
                0x00000000080094e8                HAL_PCD_Start
 .text.HAL_PCD_SetAddress
                0x00000000080094f4       0x2c build/Drivers/STM32F3xx_HAL_Driver/Src/stm32f3xx_hal_pcd.o
                0x00000000080094f4                HAL_PCD_SetAddress
 .text.HAL_PCD_EP_Open
                0x0000000008009520      0x2e4 build/Drivers/STM32F3xx_HAL_Driver/Src/stm32f3xx_hal_pcd.o
                0x0000000008009520                HAL_PCD_EP_Open
 .text.HAL_PCD_EP_Close
                0x0000000008009804      0x1b8 build/Drivers/STM32F3xx_HAL_Driver/Src/stm32f3xx_hal_pcd.o
                0x0000000008009804                HAL_PCD_EP_Close
 .text.HAL_PCD_EP_Receive
                0x00000000080099bc       0xc8 build/Drivers/STM32F3xx_HAL_Driver/Src/stm32f3xx_hal_pcd.o
                0x00000000080099bc                HAL_PCD_EP_Receive
 .text.HAL_PCD_EP_GetRxCount
                0x0000000008009a84       0x10 build/Drivers/STM32F3xx_HAL_Driver/Src/stm32f3xx_hal_pcd.o
                0x0000000008009a84                HAL_PCD_EP_GetRxCount
 .text.HAL_PCD_EP_Transmit
                0x0000000008009a94      0x116 build/Drivers/STM32F3xx_HAL_Driver/Src/stm32f3xx_hal_pcd.o
                0x0000000008009a94                HAL_PCD_EP_Transmit
 *fill*         0x0000000008009baa        0x2 
 .text.HAL_PCD_IRQHandler
                0x0000000008009bac      0x488 build/Drivers/STM32F3xx_HAL_Driver/Src/stm32f3xx_hal_pcd.o
                0x0000000008009bac                HAL_PCD_IRQHandler
 .text.HAL_PCD_EP_SetStall
                0x000000000800a034       0xa0 build/Drivers/STM32F3xx_HAL_Driver/Src/stm32f3xx_hal_pcd.o
                0x000000000800a034                HAL_PCD_EP_SetStall
 .text.HAL_PCD_EP_ClrStall
                0x000000000800a0d4       0xbc build/Drivers/STM32F3xx_HAL_Driver/Src/stm32f3xx_hal_pcd.o
                0x000000000800a0d4                HAL_PCD_EP_ClrStall
 .text.HAL_PCDEx_PMAConfig
                0x000000000800a190       0x36 build/Drivers/STM32F3xx_HAL_Driver/Src/stm32f3xx_hal_pcd_ex.o
                0x000000000800a190                HAL_PCDEx_PMAConfig
 .text.PCD_WritePMA
                0x000000000800a1c6       0x1c build/Drivers/STM32F3xx_HAL_Driver/Src/stm32f3xx_hal_pcd_ex.o
                0x000000000800a1c6                PCD_WritePMA
 .text.PCD_ReadPMA
                0x000000000800a1e2       0x1c build/Drivers/STM32F3xx_HAL_Driver/Src/stm32f3xx_hal_pcd_ex.o
                0x000000000800a1e2                PCD_ReadPMA
 .text.HAL_PCDEx_SetConnectionState
                0x000000000800a1fe        0x2 build/Drivers/STM32F3xx_HAL_Driver/Src/stm32f3xx_hal_pcd_ex.o
                0x000000000800a1fe                HAL_PCDEx_SetConnectionState
 .text.I2C_TransferConfig
                0x000000000800a200       0x2a build/Drivers/STM32F3xx_HAL_Driver/Src/stm32f3xx_hal_i2c.o
 .text.I2C_IsAcknowledgeFailed
                0x000000000800a22a       0x98 build/Drivers/STM32F3xx_HAL_Driver/Src/stm32f3xx_hal_i2c.o
 .text.I2C_WaitOnTXISFlagUntilTimeout
                0x000000000800a2c2       0x54 build/Drivers/STM32F3xx_HAL_Driver/Src/stm32f3xx_hal_i2c.o
 .text.I2C_WaitOnFlagUntilTimeout
                0x000000000800a316       0x64 build/Drivers/STM32F3xx_HAL_Driver/Src/stm32f3xx_hal_i2c.o
 .text.I2C_RequestMemoryWrite
                0x000000000800a37a       0x66 build/Drivers/STM32F3xx_HAL_Driver/Src/stm32f3xx_hal_i2c.o
 .text.I2C_RequestMemoryRead
                0x000000000800a3e0       0x64 build/Drivers/STM32F3xx_HAL_Driver/Src/stm32f3xx_hal_i2c.o
 .text.I2C_WaitOnSTOPFlagUntilTimeout
                0x000000000800a444       0x50 build/Drivers/STM32F3xx_HAL_Driver/Src/stm32f3xx_hal_i2c.o
 .text.HAL_I2C_MspInit
                0x000000000800a494        0x2 build/Drivers/STM32F3xx_HAL_Driver/Src/stm32f3xx_hal_i2c.o
                0x000000000800a494                HAL_I2C_MspInit
 .text.HAL_I2C_Init
                0x000000000800a496       0x90 build/Drivers/STM32F3xx_HAL_Driver/Src/stm32f3xx_hal_i2c.o
                0x000000000800a496                HAL_I2C_Init
 .text.HAL_I2C_MspDeInit
                0x000000000800a526        0x2 build/Drivers/STM32F3xx_HAL_Driver/Src/stm32f3xx_hal_i2c.o
                0x000000000800a526                HAL_I2C_MspDeInit
 .text.HAL_I2C_DeInit
                0x000000000800a528       0x2e build/Drivers/STM32F3xx_HAL_Driver/Src/stm32f3xx_hal_i2c.o
                0x000000000800a528                HAL_I2C_DeInit
 .text.HAL_I2C_Mem_Write
                0x000000000800a556      0x104 build/Drivers/STM32F3xx_HAL_Driver/Src/stm32f3xx_hal_i2c.o
                0x000000000800a556                HAL_I2C_Mem_Write
 .text.HAL_I2C_Mem_Read
                0x000000000800a65a      0x10e build/Drivers/STM32F3xx_HAL_Driver/Src/stm32f3xx_hal_i2c.o
                0x000000000800a65a                HAL_I2C_Mem_Read
 .text.HAL_I2C_GetState
                0x000000000800a768        0x6 build/Drivers/STM32F3xx_HAL_Driver/Src/stm32f3xx_hal_i2c.o
                0x000000000800a768                HAL_I2C_GetState
 .text.SPI_WaitFifoStateUntilTimeout
                0x000000000800a76e       0x94 build/Drivers/STM32F3xx_HAL_Driver/Src/stm32f3xx_hal_spi.o
 .text.SPI_WaitFlagStateUntilTimeout
                0x000000000800a802       0x82 build/Drivers/STM32F3xx_HAL_Driver/Src/stm32f3xx_hal_spi.o
 .text.SPI_EndRxTxTransaction
                0x000000000800a884       0x4c build/Drivers/STM32F3xx_HAL_Driver/Src/stm32f3xx_hal_spi.o
 .text.HAL_SPI_MspInit
                0x000000000800a8d0        0x2 build/Drivers/STM32F3xx_HAL_Driver/Src/stm32f3xx_hal_spi.o
                0x000000000800a8d0                HAL_SPI_MspInit
 .text.HAL_SPI_Init
                0x000000000800a8d2       0xa4 build/Drivers/STM32F3xx_HAL_Driver/Src/stm32f3xx_hal_spi.o
                0x000000000800a8d2                HAL_SPI_Init
 .text.HAL_SPI_MspDeInit
                0x000000000800a976        0x2 build/Drivers/STM32F3xx_HAL_Driver/Src/stm32f3xx_hal_spi.o
                0x000000000800a976                HAL_SPI_MspDeInit
 .text.HAL_SPI_DeInit
                0x000000000800a978       0x2a build/Drivers/STM32F3xx_HAL_Driver/Src/stm32f3xx_hal_spi.o
                0x000000000800a978                HAL_SPI_DeInit
 .text.HAL_SPI_TransmitReceive
                0x000000000800a9a2      0x270 build/Drivers/STM32F3xx_HAL_Driver/Src/stm32f3xx_hal_spi.o
                0x000000000800a9a2                HAL_SPI_TransmitReceive
 .text.HAL_SPI_GetState
                0x000000000800ac12        0x6 build/Drivers/STM32F3xx_HAL_Driver/Src/stm32f3xx_hal_spi.o
                0x000000000800ac12                HAL_SPI_GetState
 .text.USBD_Init
                0x000000000800ac18       0x2a build/Drivers/STM32_USB_Device_Library/Core/Src/usbd_core.o
                0x000000000800ac18                USBD_Init
 .text.USBD_RegisterClass
                0x000000000800ac42        0xe build/Drivers/STM32_USB_Device_Library/Core/Src/usbd_core.o
                0x000000000800ac42                USBD_RegisterClass
 .text.USBD_Start
                0x000000000800ac50        0xa build/Drivers/STM32_USB_Device_Library/Core/Src/usbd_core.o
                0x000000000800ac50                USBD_Start
 .text.USBD_SetClassConfig
                0x000000000800ac5a       0x16 build/Drivers/STM32_USB_Device_Library/Core/Src/usbd_core.o
                0x000000000800ac5a                USBD_SetClassConfig
 .text.USBD_ClrClassConfig
                0x000000000800ac70        0xe build/Drivers/STM32_USB_Device_Library/Core/Src/usbd_core.o
                0x000000000800ac70                USBD_ClrClassConfig
 .text.USBD_LL_SetupStage
                0x000000000800ac7e       0x5a build/Drivers/STM32_USB_Device_Library/Core/Src/usbd_core.o
                0x000000000800ac7e                USBD_LL_SetupStage
 .text.USBD_LL_DataOutStage
                0x000000000800acd8       0x60 build/Drivers/STM32_USB_Device_Library/Core/Src/usbd_core.o
                0x000000000800acd8                USBD_LL_DataOutStage
 .text.USBD_LL_DataInStage
                0x000000000800ad38       0x8c build/Drivers/STM32_USB_Device_Library/Core/Src/usbd_core.o
                0x000000000800ad38                USBD_LL_DataInStage
 .text.USBD_LL_Reset
                0x000000000800adc4       0x3e build/Drivers/STM32_USB_Device_Library/Core/Src/usbd_core.o
                0x000000000800adc4                USBD_LL_Reset
 .text.USBD_LL_SetSpeed
                0x000000000800ae02        0x6 build/Drivers/STM32_USB_Device_Library/Core/Src/usbd_core.o
                0x000000000800ae02                USBD_LL_SetSpeed
 .text.USBD_LL_SOF
                0x000000000800ae08       0x18 build/Drivers/STM32_USB_Device_Library/Core/Src/usbd_core.o
                0x000000000800ae08                USBD_LL_SOF
 .text.USBD_CtlError.constprop.0
                0x000000000800ae20       0x16 build/Drivers/STM32_USB_Device_Library/Core/Src/usbd_ctlreq.o
 *fill*         0x000000000800ae36        0x2 
 .text.USBD_StdDevReq
                0x000000000800ae38      0x1f4 build/Drivers/STM32_USB_Device_Library/Core/Src/usbd_ctlreq.o
                0x000000000800ae38                USBD_StdDevReq
 .text.USBD_StdItfReq
                0x000000000800b02c       0x30 build/Drivers/STM32_USB_Device_Library/Core/Src/usbd_ctlreq.o
                0x000000000800b02c                USBD_StdItfReq
 .text.USBD_StdEPReq
                0x000000000800b05c       0xae build/Drivers/STM32_USB_Device_Library/Core/Src/usbd_ctlreq.o
                0x000000000800b05c                USBD_StdEPReq
 .text.USBD_ParseSetupRequest
                0x000000000800b10a       0x28 build/Drivers/STM32_USB_Device_Library/Core/Src/usbd_ctlreq.o
                0x000000000800b10a                USBD_ParseSetupRequest
 .text.USBD_GetString
                0x000000000800b132       0x38 build/Drivers/STM32_USB_Device_Library/Core/Src/usbd_ctlreq.o
                0x000000000800b132                USBD_GetString
 .text.USBD_CtlSendData
                0x000000000800b16a       0x1a build/Drivers/STM32_USB_Device_Library/Core/Src/usbd_ioreq.o
                0x000000000800b16a                USBD_CtlSendData
 .text.USBD_CtlContinueSendData
                0x000000000800b184       0x10 build/Drivers/STM32_USB_Device_Library/Core/Src/usbd_ioreq.o
                0x000000000800b184                USBD_CtlContinueSendData
 .text.USBD_CtlPrepareRx
                0x000000000800b194       0x1a build/Drivers/STM32_USB_Device_Library/Core/Src/usbd_ioreq.o
                0x000000000800b194                USBD_CtlPrepareRx
 .text.USBD_CtlContinueRx
                0x000000000800b1ae       0x10 build/Drivers/STM32_USB_Device_Library/Core/Src/usbd_ioreq.o
                0x000000000800b1ae                USBD_CtlContinueRx
 .text.USBD_CtlSendStatus
                0x000000000800b1be       0x16 build/Drivers/STM32_USB_Device_Library/Core/Src/usbd_ioreq.o
                0x000000000800b1be                USBD_CtlSendStatus
 .text.USBD_CtlReceiveStatus
                0x000000000800b1d4       0x16 build/Drivers/STM32_USB_Device_Library/Core/Src/usbd_ioreq.o
                0x000000000800b1d4                USBD_CtlReceiveStatus
 .text.USBD_CDC_DataIn
                0x000000000800b1ea       0x12 build/Drivers/STM32_USB_Device_Library/Class/CDC/Src/usbd_cdc.o
 .text.USBD_CDC_EP0_RxReady
                0x000000000800b1fc       0x28 build/Drivers/STM32_USB_Device_Library/Class/CDC/Src/usbd_cdc.o
 .text.USBD_CDC_GetFSCfgDesc
                0x000000000800b224        0xc build/Drivers/STM32_USB_Device_Library/Class/CDC/Src/usbd_cdc.o
 .text.USBD_CDC_GetHSCfgDesc
                0x000000000800b230        0xc build/Drivers/STM32_USB_Device_Library/Class/CDC/Src/usbd_cdc.o
 .text.USBD_CDC_GetOtherSpeedCfgDesc
                0x000000000800b23c        0xc build/Drivers/STM32_USB_Device_Library/Class/CDC/Src/usbd_cdc.o
 .text.USBD_CDC_GetDeviceQualifierDescriptor
                0x000000000800b248        0xc build/Drivers/STM32_USB_Device_Library/Class/CDC/Src/usbd_cdc.o
                0x000000000800b248                USBD_CDC_GetDeviceQualifierDescriptor
 .text.USBD_CDC_DataOut
                0x000000000800b254       0x2e build/Drivers/STM32_USB_Device_Library/Class/CDC/Src/usbd_cdc.o
 .text.USBD_CDC_Setup
                0x000000000800b282       0x56 build/Drivers/STM32_USB_Device_Library/Class/CDC/Src/usbd_cdc.o
 .text.USBD_CDC_DeInit
                0x000000000800b2d8       0x3a build/Drivers/STM32_USB_Device_Library/Class/CDC/Src/usbd_cdc.o
 .text.USBD_CDC_Init
                0x000000000800b312       0x8c build/Drivers/STM32_USB_Device_Library/Class/CDC/Src/usbd_cdc.o
 .text.USBD_CDC_RegisterInterface
                0x000000000800b39e        0xe build/Drivers/STM32_USB_Device_Library/Class/CDC/Src/usbd_cdc.o
                0x000000000800b39e                USBD_CDC_RegisterInterface
 .text.USBD_CDC_SetTxBuffer
                0x000000000800b3ac       0x10 build/Drivers/STM32_USB_Device_Library/Class/CDC/Src/usbd_cdc.o
                0x000000000800b3ac                USBD_CDC_SetTxBuffer
 .text.USBD_CDC_SetRxBuffer
                0x000000000800b3bc        0xc build/Drivers/STM32_USB_Device_Library/Class/CDC/Src/usbd_cdc.o
                0x000000000800b3bc                USBD_CDC_SetRxBuffer
 .text.USBD_CDC_TransmitPacket
                0x000000000800b3c8       0x2e build/Drivers/STM32_USB_Device_Library/Class/CDC/Src/usbd_cdc.o
                0x000000000800b3c8                USBD_CDC_TransmitPacket
 .text.USBD_CDC_ReceivePacket
                0x000000000800b3f6       0x2e build/Drivers/STM32_USB_Device_Library/Class/CDC/Src/usbd_cdc.o
                0x000000000800b3f6                USBD_CDC_ReceivePacket
 .text.HAL_PCD_MspInit
                0x000000000800b424       0x98 build/usbd_conf.o
                0x000000000800b424                HAL_PCD_MspInit
 .text.HAL_PCD_SetupStageCallback
                0x000000000800b4bc        0xc build/usbd_conf.o
                0x000000000800b4bc                HAL_PCD_SetupStageCallback
 .text.HAL_PCD_DataOutStageCallback
                0x000000000800b4c8       0x12 build/usbd_conf.o
                0x000000000800b4c8                HAL_PCD_DataOutStageCallback
 .text.HAL_PCD_DataInStageCallback
                0x000000000800b4da       0x10 build/usbd_conf.o
                0x000000000800b4da                HAL_PCD_DataInStageCallback
 .text.HAL_PCD_SOFCallback
                0x000000000800b4ea        0x8 build/usbd_conf.o
                0x000000000800b4ea                HAL_PCD_SOFCallback
 .text.HAL_PCD_ResetCallback
                0x000000000800b4f2       0x1a build/usbd_conf.o
                0x000000000800b4f2                HAL_PCD_ResetCallback
 .text.HAL_PCD_SuspendCallback
                0x000000000800b50c        0x2 build/usbd_conf.o
                0x000000000800b50c                HAL_PCD_SuspendCallback
 .text.HAL_PCD_ResumeCallback
                0x000000000800b50e        0x2 build/usbd_conf.o
                0x000000000800b50e                HAL_PCD_ResumeCallback
 .text.USBD_LL_Init
                0x000000000800b510       0x7c build/usbd_conf.o
                0x000000000800b510                USBD_LL_Init
 .text.USBD_LL_Start
                0x000000000800b58c        0xe build/usbd_conf.o
                0x000000000800b58c                USBD_LL_Start
 .text.USBD_LL_OpenEP
                0x000000000800b59a       0x14 build/usbd_conf.o
                0x000000000800b59a                USBD_LL_OpenEP
 .text.USBD_LL_CloseEP
                0x000000000800b5ae        0xe build/usbd_conf.o
                0x000000000800b5ae                USBD_LL_CloseEP
 .text.USBD_LL_StallEP
                0x000000000800b5bc        0xe build/usbd_conf.o
                0x000000000800b5bc                USBD_LL_StallEP
 .text.USBD_LL_ClearStallEP
                0x000000000800b5ca        0xe build/usbd_conf.o
                0x000000000800b5ca                USBD_LL_ClearStallEP
 .text.USBD_LL_IsStallEP
                0x000000000800b5d8       0x26 build/usbd_conf.o
                0x000000000800b5d8                USBD_LL_IsStallEP
 .text.USBD_LL_SetUSBAddress
                0x000000000800b5fe        0xe build/usbd_conf.o
                0x000000000800b5fe                USBD_LL_SetUSBAddress
 .text.USBD_LL_Transmit
                0x000000000800b60c        0xe build/usbd_conf.o
                0x000000000800b60c                USBD_LL_Transmit
 .text.USBD_LL_PrepareReceive
                0x000000000800b61a        0xe build/usbd_conf.o
                0x000000000800b61a                USBD_LL_PrepareReceive
 .text.USBD_LL_GetRxDataSize
                0x000000000800b628        0xc build/usbd_conf.o
                0x000000000800b628                USBD_LL_GetRxDataSize
 .text.USBD_static_malloc
                0x000000000800b634        0x8 build/usbd_conf.o
                0x000000000800b634                USBD_static_malloc
 .text.USBD_static_free
                0x000000000800b63c        0x2 build/usbd_conf.o
                0x000000000800b63c                USBD_static_free
 *fill*         0x000000000800b63e        0x2 
 .text.USBD_VCP_DeviceDescriptor
                0x000000000800b640        0xc build/usbd_desc.o
                0x000000000800b640                USBD_VCP_DeviceDescriptor
 .text.USBD_VCP_LangIDStrDescriptor
                0x000000000800b64c        0xc build/usbd_desc.o
                0x000000000800b64c                USBD_VCP_LangIDStrDescriptor
 .text.IntToUnicode
                0x000000000800b658       0x2a build/usbd_desc.o
 *fill*         0x000000000800b682        0x2 
 .text.USBD_VCP_SerialStrDescriptor
                0x000000000800b684       0x3c build/usbd_desc.o
                0x000000000800b684                USBD_VCP_SerialStrDescriptor
 .text.USBD_VCP_ProductStrDescriptor
                0x000000000800b6c0       0x1c build/usbd_desc.o
                0x000000000800b6c0                USBD_VCP_ProductStrDescriptor
 .text.USBD_VCP_ManufacturerStrDescriptor
                0x000000000800b6dc       0x1c build/usbd_desc.o
                0x000000000800b6dc                USBD_VCP_ManufacturerStrDescriptor
 .text.USBD_VCP_ConfigStrDescriptor
                0x000000000800b6f8       0x1c build/usbd_desc.o
                0x000000000800b6f8                USBD_VCP_ConfigStrDescriptor
 .text.USBD_VCP_InterfaceStrDescriptor
                0x000000000800b714       0x1c build/usbd_desc.o
                0x000000000800b714                USBD_VCP_InterfaceStrDescriptor
 .text.CDC_Itf_DeInit
                0x000000000800b730        0x4 build/usbd_cdc_interface.o
 .text.CDC_Itf_Control
                0x000000000800b734       0x48 build/usbd_cdc_interface.o
 .text.CDC_Itf_Receive
                0x000000000800b77c       0x1c build/usbd_cdc_interface.o
 .text.CDC_Itf_Init
                0x000000000800b798       0x18 build/usbd_cdc_interface.o
 .text.SPIx_Init
                0x000000000800b7b0       0x88 build/Drivers/BSP/STM32F3-Discovery/stm32f3_discovery.o
 .text.SPIx_WriteRead
                0x000000000800b838       0x40 build/Drivers/BSP/STM32F3-Discovery/stm32f3_discovery.o
 .text.I2Cx_Init
                0x000000000800b878       0x74 build/Drivers/BSP/STM32F3-Discovery/stm32f3_discovery.o
 .text.BSP_LED_Init
                0x000000000800b8ec       0x6c build/Drivers/BSP/STM32F3-Discovery/stm32f3_discovery.o
                0x000000000800b8ec                BSP_LED_Init
 .text.BSP_LED_On
                0x000000000800b958       0x1c build/Drivers/BSP/STM32F3-Discovery/stm32f3_discovery.o
                0x000000000800b958                BSP_LED_On
 .text.BSP_LED_Off
                0x000000000800b974       0x1c build/Drivers/BSP/STM32F3-Discovery/stm32f3_discovery.o
                0x000000000800b974                BSP_LED_Off
 .text.BSP_LED_Toggle
                0x000000000800b990       0x18 build/Drivers/BSP/STM32F3-Discovery/stm32f3_discovery.o
                0x000000000800b990                BSP_LED_Toggle
 .text.BSP_PB_Init
                0x000000000800b9a8       0x74 build/Drivers/BSP/STM32F3-Discovery/stm32f3_discovery.o
                0x000000000800b9a8                BSP_PB_Init
 .text.BSP_PB_GetState
                0x000000000800ba1c       0x14 build/Drivers/BSP/STM32F3-Discovery/stm32f3_discovery.o
                0x000000000800ba1c                BSP_PB_GetState
 .text.GYRO_IO_Init
                0x000000000800ba30       0x60 build/Drivers/BSP/STM32F3-Discovery/stm32f3_discovery.o
                0x000000000800ba30                GYRO_IO_Init
 .text.GYRO_IO_Write
                0x000000000800ba90       0x44 build/Drivers/BSP/STM32F3-Discovery/stm32f3_discovery.o
                0x000000000800ba90                GYRO_IO_Write
 .text.GYRO_IO_Read
                0x000000000800bad4       0x48 build/Drivers/BSP/STM32F3-Discovery/stm32f3_discovery.o
                0x000000000800bad4                GYRO_IO_Read
 .text.COMPASSACCELERO_IO_Init
                0x000000000800bb1c       0x64 build/Drivers/BSP/STM32F3-Discovery/stm32f3_discovery.o
                0x000000000800bb1c                COMPASSACCELERO_IO_Init
 .text.COMPASSACCELERO_IO_ITConfig
                0x000000000800bb80       0x48 build/Drivers/BSP/STM32F3-Discovery/stm32f3_discovery.o
                0x000000000800bb80                COMPASSACCELERO_IO_ITConfig
 .text.COMPASSACCELERO_IO_Write
                0x000000000800bbc8       0x3c build/Drivers/BSP/STM32F3-Discovery/stm32f3_discovery.o
                0x000000000800bbc8                COMPASSACCELERO_IO_Write
 .text.COMPASSACCELERO_IO_Read
                0x000000000800bc04       0x40 build/Drivers/BSP/STM32F3-Discovery/stm32f3_discovery.o
                0x000000000800bc04                COMPASSACCELERO_IO_Read
 .text.BSP_ACCELERO_Init
                0x000000000800bc44       0x40 build/Drivers/BSP/STM32F3-Discovery/stm32f3_discovery_accelerometer.o
                0x000000000800bc44                BSP_ACCELERO_Init
 .text.BSP_ACCELERO_GetXYZ
                0x000000000800bc84       0x10 build/Drivers/BSP/STM32F3-Discovery/stm32f3_discovery_accelerometer.o
                0x000000000800bc84                BSP_ACCELERO_GetXYZ
 .text.BSP_GYRO_Init
                0x000000000800bc94       0x68 build/Drivers/BSP/STM32F3-Discovery/stm32f3_discovery_gyroscope.o
                0x000000000800bc94                BSP_GYRO_Init
 .text.BSP_GYRO_GetXYZ
                0x000000000800bcfc       0x10 build/Drivers/BSP/STM32F3-Discovery/stm32f3_discovery_gyroscope.o
                0x000000000800bcfc                BSP_GYRO_GetXYZ
 .text.LSM303DLHC_AccDeInit
                0x000000000800bd0c        0x2 build/Drivers/BSP/Components/lsm303dlhc/lsm303dlhc.o
                0x000000000800bd0c                LSM303DLHC_AccDeInit
 .text.LSM303DLHC_AccInit
                0x000000000800bd0e       0x20 build/Drivers/BSP/Components/lsm303dlhc/lsm303dlhc.o
                0x000000000800bd0e                LSM303DLHC_AccInit
 .text.LSM303DLHC_AccReadID
                0x000000000800bd2e       0x12 build/Drivers/BSP/Components/lsm303dlhc/lsm303dlhc.o
                0x000000000800bd2e                LSM303DLHC_AccReadID
 .text.LSM303DLHC_AccRebootCmd
                0x000000000800bd40       0x1c build/Drivers/BSP/Components/lsm303dlhc/lsm303dlhc.o
                0x000000000800bd40                LSM303DLHC_AccRebootCmd
 .text.LSM303DLHC_AccFilterConfig
                0x000000000800bd5c       0x20 build/Drivers/BSP/Components/lsm303dlhc/lsm303dlhc.o
                0x000000000800bd5c                LSM303DLHC_AccFilterConfig
 .text.LSM303DLHC_AccFilterCmd
                0x000000000800bd7c       0x20 build/Drivers/BSP/Components/lsm303dlhc/lsm303dlhc.o
                0x000000000800bd7c                LSM303DLHC_AccFilterCmd
 .text.LSM303DLHC_AccReadXYZ
                0x000000000800bd9c       0xae build/Drivers/BSP/Components/lsm303dlhc/lsm303dlhc.o
                0x000000000800bd9c                LSM303DLHC_AccReadXYZ
 .text.LSM303DLHC_AccFilterClickCmd
                0x000000000800be4a       0x20 build/Drivers/BSP/Components/lsm303dlhc/lsm303dlhc.o
                0x000000000800be4a                LSM303DLHC_AccFilterClickCmd
 .text.LSM303DLHC_AccIT1Enable
                0x000000000800be6a       0x1c build/Drivers/BSP/Components/lsm303dlhc/lsm303dlhc.o
                0x000000000800be6a                LSM303DLHC_AccIT1Enable
 .text.LSM303DLHC_AccClickITEnable
                0x000000000800be86       0x44 build/Drivers/BSP/Components/lsm303dlhc/lsm303dlhc.o
                0x000000000800be86                LSM303DLHC_AccClickITEnable
 .text.LSM303DLHC_AccZClickITConfig
                0x000000000800beca       0x1c build/Drivers/BSP/Components/lsm303dlhc/lsm303dlhc.o
                0x000000000800beca                LSM303DLHC_AccZClickITConfig
 .text.L3GD20_DeInit
                0x000000000800bee6        0x2 build/Drivers/BSP/Components/l3gd20/l3gd20.o
                0x000000000800bee6                L3GD20_DeInit
 .text.L3GD20_Init
                0x000000000800bee8       0x34 build/Drivers/BSP/Components/l3gd20/l3gd20.o
                0x000000000800bee8                L3GD20_Init
 .text.L3GD20_LowPower
                0x000000000800bf1c       0x18 build/Drivers/BSP/Components/l3gd20/l3gd20.o
                0x000000000800bf1c                L3GD20_LowPower
 .text.L3GD20_ReadID
                0x000000000800bf34       0x1c build/Drivers/BSP/Components/l3gd20/l3gd20.o
                0x000000000800bf34                L3GD20_ReadID
 .text.L3GD20_RebootCmd
                0x000000000800bf50       0x2c build/Drivers/BSP/Components/l3gd20/l3gd20.o
                0x000000000800bf50                L3GD20_RebootCmd
 .text.L3GD20_INT1InterruptConfig
                0x000000000800bf7c       0x5e build/Drivers/BSP/Components/l3gd20/l3gd20.o
                0x000000000800bf7c                L3GD20_INT1InterruptConfig
 .text.L3GD20_EnableIT
                0x000000000800bfda       0x40 build/Drivers/BSP/Components/l3gd20/l3gd20.o
                0x000000000800bfda                L3GD20_EnableIT
 .text.L3GD20_DisableIT
                0x000000000800c01a       0x3c build/Drivers/BSP/Components/l3gd20/l3gd20.o
                0x000000000800c01a                L3GD20_DisableIT
 .text.L3GD20_FilterConfig
                0x000000000800c056       0x2e build/Drivers/BSP/Components/l3gd20/l3gd20.o
                0x000000000800c056                L3GD20_FilterConfig
 .text.L3GD20_FilterCmd
                0x000000000800c084       0x2e build/Drivers/BSP/Components/l3gd20/l3gd20.o
                0x000000000800c084                L3GD20_FilterCmd
 *fill*         0x000000000800c0b2        0x2 
 .text.L3GD20_ReadXYZAngRate
                0x000000000800c0b4       0xf0 build/Drivers/BSP/Components/l3gd20/l3gd20.o
                0x000000000800c0b4                L3GD20_ReadXYZAngRate
 .text.I3G4250D_DeInit
                0x000000000800c1a4        0x2 build/Drivers/BSP/Components/i3g4250d/i3g4250d.o
                0x000000000800c1a4                I3G4250D_DeInit
 .text.I3G4250D_Init
                0x000000000800c1a6       0x34 build/Drivers/BSP/Components/i3g4250d/i3g4250d.o
                0x000000000800c1a6                I3G4250D_Init
 .text.I3G4250D_LowPower
                0x000000000800c1da       0x18 build/Drivers/BSP/Components/i3g4250d/i3g4250d.o
                0x000000000800c1da                I3G4250D_LowPower
 .text.I3G4250D_ReadID
                0x000000000800c1f2       0x1c build/Drivers/BSP/Components/i3g4250d/i3g4250d.o
                0x000000000800c1f2                I3G4250D_ReadID
 .text.I3G4250D_RebootCmd
                0x000000000800c20e       0x2c build/Drivers/BSP/Components/i3g4250d/i3g4250d.o
                0x000000000800c20e                I3G4250D_RebootCmd
 .text.I3G4250D_INT1InterruptConfig
                0x000000000800c23a       0x5e build/Drivers/BSP/Components/i3g4250d/i3g4250d.o
                0x000000000800c23a                I3G4250D_INT1InterruptConfig
 .text.I3G4250D_EnableIT
                0x000000000800c298       0x40 build/Drivers/BSP/Components/i3g4250d/i3g4250d.o
                0x000000000800c298                I3G4250D_EnableIT
 .text.I3G4250D_DisableIT
                0x000000000800c2d8       0x3c build/Drivers/BSP/Components/i3g4250d/i3g4250d.o
                0x000000000800c2d8                I3G4250D_DisableIT
 .text.I3G4250D_FilterConfig
                0x000000000800c314       0x2e build/Drivers/BSP/Components/i3g4250d/i3g4250d.o
                0x000000000800c314                I3G4250D_FilterConfig
 .text.I3G4250D_FilterCmd
                0x000000000800c342       0x2e build/Drivers/BSP/Components/i3g4250d/i3g4250d.o
                0x000000000800c342                I3G4250D_FilterCmd
 .text.I3G4250D_ReadXYZAngRate
                0x000000000800c370       0xf0 build/Drivers/BSP/Components/i3g4250d/i3g4250d.o
                0x000000000800c370                I3G4250D_ReadXYZAngRate
 .text.LSM303AGR_AccDeInit
                0x000000000800c460        0x2 build/Drivers/BSP/Components/lsm303agr/lsm303agr.o
                0x000000000800c460                LSM303AGR_AccDeInit
 .text.LSM303AGR_AccInit
                0x000000000800c462       0x20 build/Drivers/BSP/Components/lsm303agr/lsm303agr.o
                0x000000000800c462                LSM303AGR_AccInit
 .text.LSM303AGR_AccReadID
                0x000000000800c482       0x12 build/Drivers/BSP/Components/lsm303agr/lsm303agr.o
                0x000000000800c482                LSM303AGR_AccReadID
 .text.LSM303AGR_AccRebootCmd
                0x000000000800c494       0x1c build/Drivers/BSP/Components/lsm303agr/lsm303agr.o
                0x000000000800c494                LSM303AGR_AccRebootCmd
 .text.LSM303AGR_AccFilterConfig
                0x000000000800c4b0       0x20 build/Drivers/BSP/Components/lsm303agr/lsm303agr.o
                0x000000000800c4b0                LSM303AGR_AccFilterConfig
 .text.LSM303AGR_AccFilterCmd
                0x000000000800c4d0       0x20 build/Drivers/BSP/Components/lsm303agr/lsm303agr.o
                0x000000000800c4d0                LSM303AGR_AccFilterCmd
 .text.LSM303AGR_AccReadXYZ
                0x000000000800c4f0       0xae build/Drivers/BSP/Components/lsm303agr/lsm303agr.o
                0x000000000800c4f0                LSM303AGR_AccReadXYZ
 .text.LSM303AGR_AccFilterClickCmd
                0x000000000800c59e       0x20 build/Drivers/BSP/Components/lsm303agr/lsm303agr.o
                0x000000000800c59e                LSM303AGR_AccFilterClickCmd
 .text.LSM303AGR_AccIT1Enable
                0x000000000800c5be       0x1c build/Drivers/BSP/Components/lsm303agr/lsm303agr.o
                0x000000000800c5be                LSM303AGR_AccIT1Enable
 .text.LSM303AGR_AccClickITEnable
                0x000000000800c5da       0x44 build/Drivers/BSP/Components/lsm303agr/lsm303agr.o
                0x000000000800c5da                LSM303AGR_AccClickITEnable
 .text.LSM303AGR_AccZClickITConfig
                0x000000000800c61e       0x1c build/Drivers/BSP/Components/lsm303agr/lsm303agr.o
                0x000000000800c61e                LSM303AGR_AccZClickITConfig
 *fill*         0x000000000800c63a        0x2 
 .text.Reset_Handler
                0x000000000800c63c       0x50 build/Drivers/CMSIS/Device/ST/STM32F3xx/Source/Templates/gcc/startup_stm32f303xc.o
                0x000000000800c63c                Reset_Handler
 .text.Default_Handler
                0x000000000800c68c        0x2 build/Drivers/CMSIS/Device/ST/STM32F3xx/Source/Templates/gcc/startup_stm32f303xc.o
                0x000000000800c68c                RTC_Alarm_IRQHandler
                0x000000000800c68c                TIM8_TRG_COM_IRQHandler
                0x000000000800c68c                TIM8_CC_IRQHandler
                0x000000000800c68c                DebugMon_Handler
                0x000000000800c68c                TIM1_CC_IRQHandler
                0x000000000800c68c                HardFault_Handler
                0x000000000800c68c                USB_HP_IRQHandler
                0x000000000800c68c                PVD_IRQHandler
                0x000000000800c68c                TAMP_STAMP_IRQHandler
                0x000000000800c68c                PendSV_Handler
                0x000000000800c68c                NMI_Handler
                0x000000000800c68c                EXTI3_IRQHandler
                0x000000000800c68c                USB_HP_CAN_TX_IRQHandler
                0x000000000800c68c                EXTI0_IRQHandler
                0x000000000800c68c                I2C2_EV_IRQHandler
                0x000000000800c68c                FPU_IRQHandler
                0x000000000800c68c                TIM1_UP_TIM16_IRQHandler
                0x000000000800c68c                UsageFault_Handler
                0x000000000800c68c                ADC1_2_IRQHandler
                0x000000000800c68c                SPI1_IRQHandler
                0x000000000800c68c                CAN_SCE_IRQHandler
                0x000000000800c68c                TIM6_DAC_IRQHandler
                0x000000000800c68c                TIM8_UP_IRQHandler
                0x000000000800c68c                DMA2_Channel2_IRQHandler
                0x000000000800c68c                DMA1_Channel4_IRQHandler
                0x000000000800c68c                USART3_IRQHandler
                0x000000000800c68c                DMA1_Channel7_IRQHandler
                0x000000000800c68c                UART5_IRQHandler
                0x000000000800c68c                ADC3_IRQHandler
                0x000000000800c68c                TIM4_IRQHandler
                0x000000000800c68c                CAN_RX1_IRQHandler
                0x000000000800c68c                DMA2_Channel1_IRQHandler
                0x000000000800c68c                I2C1_EV_IRQHandler
                0x000000000800c68c                DMA1_Channel6_IRQHandler
                0x000000000800c68c                UART4_IRQHandler
                0x000000000800c68c                DMA2_Channel4_IRQHandler
                0x000000000800c68c                TIM3_IRQHandler
                0x000000000800c68c                RCC_IRQHandler
                0x000000000800c68c                DMA1_Channel1_IRQHandler
                0x000000000800c68c                Default_Handler
                0x000000000800c68c                USBWakeUp_RMP_IRQHandler
                0x000000000800c68c                EXTI15_10_IRQHandler
                0x000000000800c68c                TIM7_IRQHandler
                0x000000000800c68c                EXTI9_5_IRQHandler
                0x000000000800c68c                RTC_WKUP_IRQHandler
                0x000000000800c68c                SPI2_IRQHandler
                0x000000000800c68c                MemManage_Handler
                0x000000000800c68c                SVC_Handler
                0x000000000800c68c                DMA2_Channel5_IRQHandler
                0x000000000800c68c                DMA1_Channel5_IRQHandler
                0x000000000800c68c                USB_LP_IRQHandler
                0x000000000800c68c                EXTI4_IRQHandler
                0x000000000800c68c                TIM1_TRG_COM_TIM17_IRQHandler
                0x000000000800c68c                DMA1_Channel3_IRQHandler
                0x000000000800c68c                ADC4_IRQHandler
                0x000000000800c68c                WWDG_IRQHandler
                0x000000000800c68c                TIM2_IRQHandler
                0x000000000800c68c                COMP7_IRQHandler
                0x000000000800c68c                COMP1_2_3_IRQHandler
                0x000000000800c68c                EXTI1_IRQHandler
                0x000000000800c68c                USART2_IRQHandler
                0x000000000800c68c                COMP4_5_6_IRQHandler
                0x000000000800c68c                I2C2_ER_IRQHandler
                0x000000000800c68c                DMA1_Channel2_IRQHandler
                0x000000000800c68c                TIM8_BRK_IRQHandler
                0x000000000800c68c                FLASH_IRQHandler
                0x000000000800c68c                BusFault_Handler
                0x000000000800c68c                USART1_IRQHandler
                0x000000000800c68c                SPI3_IRQHandler
                0x000000000800c68c                I2C1_ER_IRQHandler
                0x000000000800c68c                USBWakeUp_IRQHandler
                0x000000000800c68c                DMA2_Channel3_IRQHandler
                0x000000000800c68c                EXTI2_TSC_IRQHandler
                0x000000000800c68c                TIM1_BRK_TIM15_IRQHandler
 *fill*         0x000000000800c68e        0x2 
 .text.startup  0x000000000800c690       0x14 /usr/lib/gcc/arm-none-eabi/10.3.1/../../../arm-none-eabi/lib/thumb/v7e-m+fp/hard/libg.a(lib_a-__call_atexit.o)
 *(.glue_7)
 .glue_7        0x000000000800c6a4        0x0 linker stubs
 *(.glue_7t)
 .glue_7t       0x000000000800c6a4        0x0 linker stubs
 *(.eh_frame)
 .eh_frame      0x000000000800c6a4        0x0 /usr/lib/gcc/arm-none-eabi/10.3.1/thumb/v7e-m+fp/hard/crtbegin.o
 *(.init)
 .init          0x000000000800c6a4        0x4 /usr/lib/gcc/arm-none-eabi/10.3.1/thumb/v7e-m+fp/hard/crti.o
                0x000000000800c6a4                _init
 .init          0x000000000800c6a8        0x8 /usr/lib/gcc/arm-none-eabi/10.3.1/thumb/v7e-m+fp/hard/crtn.o
 *(.fini)
 .fini          0x000000000800c6b0        0x4 /usr/lib/gcc/arm-none-eabi/10.3.1/thumb/v7e-m+fp/hard/crti.o
                0x000000000800c6b0                _fini
 .fini          0x000000000800c6b4        0x8 /usr/lib/gcc/arm-none-eabi/10.3.1/thumb/v7e-m+fp/hard/crtn.o
                0x000000000800c6bc                . = ALIGN (0x4)
                0x000000000800c6bc                _etext = .

.vfp11_veneer   0x000000000800c6bc        0x0
 .vfp11_veneer  0x000000000800c6bc        0x0 linker stubs

.v4_bx          0x000000000800c6bc        0x0
 .v4_bx         0x000000000800c6bc        0x0 linker stubs

.iplt           0x000000000800c6bc        0x0
 .iplt          0x000000000800c6bc        0x0 /usr/lib/gcc/arm-none-eabi/10.3.1/thumb/v7e-m+fp/hard/crtbegin.o

.rodata         0x000000000800c6c0     0xfa24
                0x000000000800c6c0                . = ALIGN (0x4)
 *(.rodata)
 .rodata        0x000000000800c6c0      0x494 build/decoder/STM32F30x_decoder.o
 .rodata        0x000000000800cb54      0x101 /usr/lib/gcc/arm-none-eabi/10.3.1/../../../arm-none-eabi/lib/thumb/v7e-m+fp/hard/libg.a(lib_a-ctype_.o)
                0x000000000800cb54                _ctype_
 *fill*         0x000000000800cc55        0x3 
 .rodata        0x000000000800cc58        0x4 /usr/lib/gcc/arm-none-eabi/10.3.1/../../../arm-none-eabi/lib/thumb/v7e-m+fp/hard/libg.a(lib_a-impure.o)
                0x000000000800cc58                _global_impure_ptr
 .rodata        0x000000000800cc5c       0x20 /usr/lib/gcc/arm-none-eabi/10.3.1/../../../arm-none-eabi/lib/thumb/v7e-m+fp/hard/libg.a(lib_a-vfprintf.o)
 *fill*         0x000000000800cc7c        0x4 
 .rodata        0x000000000800cc80      0x128 /usr/lib/gcc/arm-none-eabi/10.3.1/../../../arm-none-eabi/lib/thumb/v7e-m+fp/hard/libg.a(lib_a-mprec.o)
                0x000000000800cc90                __mprec_tens
                0x000000000800cd58                __mprec_tinytens
                0x000000000800cd80                __mprec_bigtens
 .rodata        0x000000000800cda8       0x20 /usr/lib/gcc/arm-none-eabi/10.3.1/../../../arm-none-eabi/lib/thumb/v7e-m+fp/hard/libg.a(lib_a-vfiprintf.o)
 *(.rodata*)
 .rodata.CmdLED.str1.1
                0x000000000800cdc8       0x68 build/main.o
 .rodata.CmdAccel.str1.1
                0x000000000800ce30       0x33 build/main.o
 .rodata.CmdGyro.str1.1
                0x000000000800ce63       0x2f build/main.o
 .rodata.CmdButton.str1.1
                0x000000000800ce92       0x2a build/main.o
 .rodata.main.str1.1
                0x000000000800cebc       0x41 build/main.o
 .rodata.str1.1
                0x000000000800cefd       0x9d build/main.o
                                         0xa4 (size before relaxing)
 .rodata.LEDs   0x000000000800cf9a        0x8 build/main.o
                0x000000000800cf9a                LEDs
 .rodata.CmdTest.str1.1
                0x000000000800cfa2       0x47 build/mytest.o
 .rodata.str1.1
                0x000000000800cfe9       0x16 build/mytest.o
 .rodata.AddTest.str1.1
                0x000000000800cfff       0x4f build/mes/pt_hook.o
 .rodata.str1.1
                0x000000000800d04e       0x1e build/mes/pt_hook.o
 .rodata.CmdR.str1.1
                0x000000000800d06c       0x10 build/monitor.o
 .rodata.str1.1
                0x000000000800d07c       0x3b build/monitor.o
                                         0x3d (size before relaxing)
 .rodata.parse.str1.1
                0x000000000800d0b7       0xd6 build/parser.o
 .rodata.TaskInput.str1.1
                0x000000000800d18d        0xb build/parser.o
                                          0xe (size before relaxing)
 .rodata.__FUNCTION__.0
                0x000000000800d198        0x6 build/parser.o
 .rodata.DumpBuffer.str1.1
                0x000000000800d19e       0x16 build/dump.o
 .rodata.CmdDump.str1.1
                0x000000000800d1b4      0x1ca build/dump.o
 .rodata.str1.1
                0x000000000800d37e       0x1c build/dump.o
                                         0x1e (size before relaxing)
 .rodata.CmdStats.str1.1
                0x000000000800d39a       0x78 build/terminal.o
 .rodata._write_r.str1.1
                0x000000000800d412       0x78 build/terminal.o
                                          0x2 (size before relaxing)
 .rodata.str1.1
                0x000000000800d412       0x32 build/terminal.o
 .rodata.Uncompress.str1.1
                0x000000000800d444       0x26 build/decoder/decoder.o
 .rodata.DecodeReadRegister.str1.1
                0x000000000800d46a       0x35 build/decoder/decoder.o
 .rodata.DecodeField.str1.1
                0x000000000800d49f       0x35 build/decoder/decoder.o
 .rodata.DecodeRegister.str1.1
                0x000000000800d4d4       0x3b build/decoder/decoder.o
 .rodata.DecodePeripheral.str1.1
                0x000000000800d50f       0x28 build/decoder/decoder.o
 .rodata.DecodePrintPeripherals.str1.1
                0x000000000800d537        0x3 build/decoder/decoder.o
                                          0x9 (size before relaxing)
 .rodata.CmdDecode.str1.1
                0x000000000800d53a      0x403 build/decoder/decoder.o
                                        0x405 (size before relaxing)
 .rodata.str1.1
                0x000000000800d93d       0x21 build/decoder/decoder.o
                                         0x28 (size before relaxing)
 .rodata.str1.1
                0x000000000800d95e     0x28bc build/decoder/STM32F30x_decoder.o
                                       0x2921 (size before relaxing)
 *fill*         0x000000000801021a        0x2 
 .rodata.ADC1_2_CCR_fields
                0x000000000801021c       0x40 build/decoder/STM32F30x_decoder.o
                0x000000000801021c                ADC1_2_CCR_fields
 .rodata.ADC1_2_CDR_fields
                0x000000000801025c       0x10 build/decoder/STM32F30x_decoder.o
                0x000000000801025c                ADC1_2_CDR_fields
 .rodata.ADC1_2_CSR_fields
                0x000000000801026c       0xb0 build/decoder/STM32F30x_decoder.o
                0x000000000801026c                ADC1_2_CSR_fields
 .rodata.ADC1_2_registers
                0x000000000801031c       0x30 build/decoder/STM32F30x_decoder.o
                0x000000000801031c                ADC1_2_registers
 .rodata.ADC1_AWD2CR_fields
                0x000000000801034c        0x8 build/decoder/STM32F30x_decoder.o
                0x000000000801034c                ADC1_AWD2CR_fields
 .rodata.ADC1_AWD3CR_fields
                0x0000000008010354        0x8 build/decoder/STM32F30x_decoder.o
                0x0000000008010354                ADC1_AWD3CR_fields
 .rodata.ADC1_CALFACT_fields
                0x000000000801035c       0x10 build/decoder/STM32F30x_decoder.o
                0x000000000801035c                ADC1_CALFACT_fields
 .rodata.ADC1_CFGR_fields
                0x000000000801036c       0x98 build/decoder/STM32F30x_decoder.o
                0x000000000801036c                ADC1_CFGR_fields
 .rodata.ADC1_CR_fields
                0x0000000008010404       0x50 build/decoder/STM32F30x_decoder.o
                0x0000000008010404                ADC1_CR_fields
 .rodata.ADC1_DIFSEL_fields
                0x0000000008010454       0x10 build/decoder/STM32F30x_decoder.o
                0x0000000008010454                ADC1_DIFSEL_fields
 .rodata.ADC1_DR_fields
                0x0000000008010464        0x8 build/decoder/STM32F30x_decoder.o
                0x0000000008010464                ADC1_DR_fields
 .rodata.ADC1_IER_fields
                0x000000000801046c       0x58 build/decoder/STM32F30x_decoder.o
                0x000000000801046c                ADC1_IER_fields
 .rodata.ADC1_ISR_fields
                0x00000000080104c4       0x58 build/decoder/STM32F30x_decoder.o
                0x00000000080104c4                ADC1_ISR_fields
 .rodata.ADC1_JDR1_fields
                0x000000000801051c        0x8 build/decoder/STM32F30x_decoder.o
                0x000000000801051c                ADC1_JDR1_fields
 .rodata.ADC1_JDR2_fields
                0x0000000008010524        0x8 build/decoder/STM32F30x_decoder.o
                0x0000000008010524                ADC1_JDR2_fields
 .rodata.ADC1_JDR3_fields
                0x000000000801052c        0x8 build/decoder/STM32F30x_decoder.o
                0x000000000801052c                ADC1_JDR3_fields
 .rodata.ADC1_JDR4_fields
                0x0000000008010534        0x8 build/decoder/STM32F30x_decoder.o
                0x0000000008010534                ADC1_JDR4_fields
 .rodata.ADC1_JSQR_fields
                0x000000000801053c       0x38 build/decoder/STM32F30x_decoder.o
                0x000000000801053c                ADC1_JSQR_fields
 .rodata.ADC1_OFR1_fields
                0x0000000008010574       0x18 build/decoder/STM32F30x_decoder.o
                0x0000000008010574                ADC1_OFR1_fields
 .rodata.ADC1_OFR2_fields
                0x000000000801058c       0x18 build/decoder/STM32F30x_decoder.o
                0x000000000801058c                ADC1_OFR2_fields
 .rodata.ADC1_OFR3_fields
                0x00000000080105a4       0x18 build/decoder/STM32F30x_decoder.o
                0x00000000080105a4                ADC1_OFR3_fields
 .rodata.ADC1_OFR4_fields
                0x00000000080105bc       0x18 build/decoder/STM32F30x_decoder.o
                0x00000000080105bc                ADC1_OFR4_fields
 .rodata.ADC1_SMPR1_fields
                0x00000000080105d4       0x48 build/decoder/STM32F30x_decoder.o
                0x00000000080105d4                ADC1_SMPR1_fields
 .rodata.ADC1_SMPR2_fields
                0x000000000801061c       0x48 build/decoder/STM32F30x_decoder.o
                0x000000000801061c                ADC1_SMPR2_fields
 .rodata.ADC1_SQR1_fields
                0x0000000008010664       0x28 build/decoder/STM32F30x_decoder.o
                0x0000000008010664                ADC1_SQR1_fields
 .rodata.ADC1_SQR2_fields
                0x000000000801068c       0x28 build/decoder/STM32F30x_decoder.o
                0x000000000801068c                ADC1_SQR2_fields
 .rodata.ADC1_SQR3_fields
                0x00000000080106b4       0x28 build/decoder/STM32F30x_decoder.o
                0x00000000080106b4                ADC1_SQR3_fields
 .rodata.ADC1_SQR4_fields
                0x00000000080106dc       0x10 build/decoder/STM32F30x_decoder.o
                0x00000000080106dc                ADC1_SQR4_fields
 .rodata.ADC1_TR1_fields
                0x00000000080106ec       0x10 build/decoder/STM32F30x_decoder.o
                0x00000000080106ec                ADC1_TR1_fields
 .rodata.ADC1_TR2_fields
                0x00000000080106fc       0x10 build/decoder/STM32F30x_decoder.o
                0x00000000080106fc                ADC1_TR2_fields
 .rodata.ADC1_TR3_fields
                0x000000000801070c       0x10 build/decoder/STM32F30x_decoder.o
                0x000000000801070c                ADC1_TR3_fields
 .rodata.ADC1_registers
                0x000000000801071c      0x1b0 build/decoder/STM32F30x_decoder.o
                0x000000000801071c                ADC1_registers
 .rodata.CAN_BTR_fields
                0x00000000080108cc       0x30 build/decoder/STM32F30x_decoder.o
                0x00000000080108cc                CAN_BTR_fields
 .rodata.CAN_ESR_fields
                0x00000000080108fc       0x30 build/decoder/STM32F30x_decoder.o
                0x00000000080108fc                CAN_ESR_fields
 .rodata.CAN_F0R1_fields
                0x000000000801092c      0x100 build/decoder/STM32F30x_decoder.o
                0x000000000801092c                CAN_F0R1_fields
 .rodata.CAN_F0R2_fields
                0x0000000008010a2c      0x100 build/decoder/STM32F30x_decoder.o
                0x0000000008010a2c                CAN_F0R2_fields
 .rodata.CAN_F10R1_fields
                0x0000000008010b2c      0x100 build/decoder/STM32F30x_decoder.o
                0x0000000008010b2c                CAN_F10R1_fields
 .rodata.CAN_F10R2_fields
                0x0000000008010c2c      0x100 build/decoder/STM32F30x_decoder.o
                0x0000000008010c2c                CAN_F10R2_fields
 .rodata.CAN_F11R1_fields
                0x0000000008010d2c      0x100 build/decoder/STM32F30x_decoder.o
                0x0000000008010d2c                CAN_F11R1_fields
 .rodata.CAN_F11R2_fields
                0x0000000008010e2c      0x100 build/decoder/STM32F30x_decoder.o
                0x0000000008010e2c                CAN_F11R2_fields
 .rodata.CAN_F12R1_fields
                0x0000000008010f2c      0x100 build/decoder/STM32F30x_decoder.o
                0x0000000008010f2c                CAN_F12R1_fields
 .rodata.CAN_F12R2_fields
                0x000000000801102c      0x100 build/decoder/STM32F30x_decoder.o
                0x000000000801102c                CAN_F12R2_fields
 .rodata.CAN_F13R1_fields
                0x000000000801112c      0x100 build/decoder/STM32F30x_decoder.o
                0x000000000801112c                CAN_F13R1_fields
 .rodata.CAN_F13R2_fields
                0x000000000801122c      0x100 build/decoder/STM32F30x_decoder.o
                0x000000000801122c                CAN_F13R2_fields
 .rodata.CAN_F14R1_fields
                0x000000000801132c      0x100 build/decoder/STM32F30x_decoder.o
                0x000000000801132c                CAN_F14R1_fields
 .rodata.CAN_F14R2_fields
                0x000000000801142c      0x100 build/decoder/STM32F30x_decoder.o
                0x000000000801142c                CAN_F14R2_fields
 .rodata.CAN_F15R1_fields
                0x000000000801152c      0x100 build/decoder/STM32F30x_decoder.o
                0x000000000801152c                CAN_F15R1_fields
 .rodata.CAN_F15R2_fields
                0x000000000801162c      0x100 build/decoder/STM32F30x_decoder.o
                0x000000000801162c                CAN_F15R2_fields
 .rodata.CAN_F16R1_fields
                0x000000000801172c      0x100 build/decoder/STM32F30x_decoder.o
                0x000000000801172c                CAN_F16R1_fields
 .rodata.CAN_F16R2_fields
                0x000000000801182c      0x100 build/decoder/STM32F30x_decoder.o
                0x000000000801182c                CAN_F16R2_fields
 .rodata.CAN_F17R1_fields
                0x000000000801192c      0x100 build/decoder/STM32F30x_decoder.o
                0x000000000801192c                CAN_F17R1_fields
 .rodata.CAN_F17R2_fields
                0x0000000008011a2c      0x100 build/decoder/STM32F30x_decoder.o
                0x0000000008011a2c                CAN_F17R2_fields
 .rodata.CAN_F18R1_fields
                0x0000000008011b2c      0x100 build/decoder/STM32F30x_decoder.o
                0x0000000008011b2c                CAN_F18R1_fields
 .rodata.CAN_F18R2_fields
                0x0000000008011c2c      0x100 build/decoder/STM32F30x_decoder.o
                0x0000000008011c2c                CAN_F18R2_fields
 .rodata.CAN_F19R1_fields
                0x0000000008011d2c      0x100 build/decoder/STM32F30x_decoder.o
                0x0000000008011d2c                CAN_F19R1_fields
 .rodata.CAN_F19R2_fields
                0x0000000008011e2c      0x100 build/decoder/STM32F30x_decoder.o
                0x0000000008011e2c                CAN_F19R2_fields
 .rodata.CAN_F1R1_fields
                0x0000000008011f2c      0x100 build/decoder/STM32F30x_decoder.o
                0x0000000008011f2c                CAN_F1R1_fields
 .rodata.CAN_F1R2_fields
                0x000000000801202c      0x100 build/decoder/STM32F30x_decoder.o
                0x000000000801202c                CAN_F1R2_fields
 .rodata.CAN_F20R1_fields
                0x000000000801212c      0x100 build/decoder/STM32F30x_decoder.o
                0x000000000801212c                CAN_F20R1_fields
 .rodata.CAN_F20R2_fields
                0x000000000801222c      0x100 build/decoder/STM32F30x_decoder.o
                0x000000000801222c                CAN_F20R2_fields
 .rodata.CAN_F21R1_fields
                0x000000000801232c      0x100 build/decoder/STM32F30x_decoder.o
                0x000000000801232c                CAN_F21R1_fields
 .rodata.CAN_F21R2_fields
                0x000000000801242c      0x100 build/decoder/STM32F30x_decoder.o
                0x000000000801242c                CAN_F21R2_fields
 .rodata.CAN_F22R1_fields
                0x000000000801252c      0x100 build/decoder/STM32F30x_decoder.o
                0x000000000801252c                CAN_F22R1_fields
 .rodata.CAN_F22R2_fields
                0x000000000801262c      0x100 build/decoder/STM32F30x_decoder.o
                0x000000000801262c                CAN_F22R2_fields
 .rodata.CAN_F23R1_fields
                0x000000000801272c      0x100 build/decoder/STM32F30x_decoder.o
                0x000000000801272c                CAN_F23R1_fields
 .rodata.CAN_F23R2_fields
                0x000000000801282c      0x100 build/decoder/STM32F30x_decoder.o
                0x000000000801282c                CAN_F23R2_fields
 .rodata.CAN_F24R1_fields
                0x000000000801292c      0x100 build/decoder/STM32F30x_decoder.o
                0x000000000801292c                CAN_F24R1_fields
 .rodata.CAN_F24R2_fields
                0x0000000008012a2c      0x100 build/decoder/STM32F30x_decoder.o
                0x0000000008012a2c                CAN_F24R2_fields
 .rodata.CAN_F25R1_fields
                0x0000000008012b2c      0x100 build/decoder/STM32F30x_decoder.o
                0x0000000008012b2c                CAN_F25R1_fields
 .rodata.CAN_F25R2_fields
                0x0000000008012c2c      0x100 build/decoder/STM32F30x_decoder.o
                0x0000000008012c2c                CAN_F25R2_fields
 .rodata.CAN_F26R1_fields
                0x0000000008012d2c      0x100 build/decoder/STM32F30x_decoder.o
                0x0000000008012d2c                CAN_F26R1_fields
 .rodata.CAN_F26R2_fields
                0x0000000008012e2c      0x100 build/decoder/STM32F30x_decoder.o
                0x0000000008012e2c                CAN_F26R2_fields
 .rodata.CAN_F27R1_fields
                0x0000000008012f2c      0x100 build/decoder/STM32F30x_decoder.o
                0x0000000008012f2c                CAN_F27R1_fields
 .rodata.CAN_F27R2_fields
                0x000000000801302c      0x100 build/decoder/STM32F30x_decoder.o
                0x000000000801302c                CAN_F27R2_fields
 .rodata.CAN_F2R1_fields
                0x000000000801312c      0x100 build/decoder/STM32F30x_decoder.o
                0x000000000801312c                CAN_F2R1_fields
 .rodata.CAN_F2R2_fields
                0x000000000801322c      0x100 build/decoder/STM32F30x_decoder.o
                0x000000000801322c                CAN_F2R2_fields
 .rodata.CAN_F3R1_fields
                0x000000000801332c      0x100 build/decoder/STM32F30x_decoder.o
                0x000000000801332c                CAN_F3R1_fields
 .rodata.CAN_F3R2_fields
                0x000000000801342c      0x100 build/decoder/STM32F30x_decoder.o
                0x000000000801342c                CAN_F3R2_fields
 .rodata.CAN_F4R1_fields
                0x000000000801352c      0x100 build/decoder/STM32F30x_decoder.o
                0x000000000801352c                CAN_F4R1_fields
 .rodata.CAN_F4R2_fields
                0x000000000801362c      0x100 build/decoder/STM32F30x_decoder.o
                0x000000000801362c                CAN_F4R2_fields
 .rodata.CAN_F5R1_fields
                0x000000000801372c      0x100 build/decoder/STM32F30x_decoder.o
                0x000000000801372c                CAN_F5R1_fields
 .rodata.CAN_F5R2_fields
                0x000000000801382c      0x100 build/decoder/STM32F30x_decoder.o
                0x000000000801382c                CAN_F5R2_fields
 .rodata.CAN_F6R1_fields
                0x000000000801392c      0x100 build/decoder/STM32F30x_decoder.o
                0x000000000801392c                CAN_F6R1_fields
 .rodata.CAN_F6R2_fields
                0x0000000008013a2c      0x100 build/decoder/STM32F30x_decoder.o
                0x0000000008013a2c                CAN_F6R2_fields
 .rodata.CAN_F7R1_fields
                0x0000000008013b2c      0x100 build/decoder/STM32F30x_decoder.o
                0x0000000008013b2c                CAN_F7R1_fields
 .rodata.CAN_F7R2_fields
                0x0000000008013c2c      0x100 build/decoder/STM32F30x_decoder.o
                0x0000000008013c2c                CAN_F7R2_fields
 .rodata.CAN_F8R1_fields
                0x0000000008013d2c      0x100 build/decoder/STM32F30x_decoder.o
                0x0000000008013d2c                CAN_F8R1_fields
 .rodata.CAN_F8R2_fields
                0x0000000008013e2c      0x100 build/decoder/STM32F30x_decoder.o
                0x0000000008013e2c                CAN_F8R2_fields
 .rodata.CAN_F9R1_fields
                0x0000000008013f2c      0x100 build/decoder/STM32F30x_decoder.o
                0x0000000008013f2c                CAN_F9R1_fields
 .rodata.CAN_F9R2_fields
                0x000000000801402c      0x100 build/decoder/STM32F30x_decoder.o
                0x000000000801402c                CAN_F9R2_fields
 .rodata.CAN_FA1R_fields
                0x000000000801412c       0xe0 build/decoder/STM32F30x_decoder.o
                0x000000000801412c                CAN_FA1R_fields
 .rodata.CAN_FFA1R_fields
                0x000000000801420c       0xe0 build/decoder/STM32F30x_decoder.o
                0x000000000801420c                CAN_FFA1R_fields
 .rodata.CAN_FM1R_fields
                0x00000000080142ec       0xe0 build/decoder/STM32F30x_decoder.o
                0x00000000080142ec                CAN_FM1R_fields
 .rodata.CAN_FMR_fields
                0x00000000080143cc       0x10 build/decoder/STM32F30x_decoder.o
                0x00000000080143cc                CAN_FMR_fields
 .rodata.CAN_FS1R_fields
                0x00000000080143dc       0xe0 build/decoder/STM32F30x_decoder.o
                0x00000000080143dc                CAN_FS1R_fields
 .rodata.CAN_IER_fields
                0x00000000080144bc       0x70 build/decoder/STM32F30x_decoder.o
                0x00000000080144bc                CAN_IER_fields
 .rodata.CAN_MCR_fields
                0x000000000801452c       0x50 build/decoder/STM32F30x_decoder.o
                0x000000000801452c                CAN_MCR_fields
 .rodata.CAN_MSR_fields
                0x000000000801457c       0x48 build/decoder/STM32F30x_decoder.o
                0x000000000801457c                CAN_MSR_fields
 .rodata.CAN_RDH0R_fields
                0x00000000080145c4       0x20 build/decoder/STM32F30x_decoder.o
                0x00000000080145c4                CAN_RDH0R_fields
 .rodata.CAN_RDH1R_fields
                0x00000000080145e4       0x20 build/decoder/STM32F30x_decoder.o
                0x00000000080145e4                CAN_RDH1R_fields
 .rodata.CAN_RDL0R_fields
                0x0000000008014604       0x20 build/decoder/STM32F30x_decoder.o
                0x0000000008014604                CAN_RDL0R_fields
 .rodata.CAN_RDL1R_fields
                0x0000000008014624       0x20 build/decoder/STM32F30x_decoder.o
                0x0000000008014624                CAN_RDL1R_fields
 .rodata.CAN_RDT0R_fields
                0x0000000008014644       0x18 build/decoder/STM32F30x_decoder.o
                0x0000000008014644                CAN_RDT0R_fields
 .rodata.CAN_RDT1R_fields
                0x000000000801465c       0x18 build/decoder/STM32F30x_decoder.o
                0x000000000801465c                CAN_RDT1R_fields
 .rodata.CAN_RF0R_fields
                0x0000000008014674       0x20 build/decoder/STM32F30x_decoder.o
                0x0000000008014674                CAN_RF0R_fields
 .rodata.CAN_RF1R_fields
                0x0000000008014694       0x20 build/decoder/STM32F30x_decoder.o
                0x0000000008014694                CAN_RF1R_fields
 .rodata.CAN_RI0R_fields
                0x00000000080146b4       0x20 build/decoder/STM32F30x_decoder.o
                0x00000000080146b4                CAN_RI0R_fields
 .rodata.CAN_RI1R_fields
                0x00000000080146d4       0x20 build/decoder/STM32F30x_decoder.o
                0x00000000080146d4                CAN_RI1R_fields
 .rodata.CAN_TDH0R_fields
                0x00000000080146f4       0x20 build/decoder/STM32F30x_decoder.o
                0x00000000080146f4                CAN_TDH0R_fields
 .rodata.CAN_TDH1R_fields
                0x0000000008014714       0x20 build/decoder/STM32F30x_decoder.o
                0x0000000008014714                CAN_TDH1R_fields
 .rodata.CAN_TDH2R_fields
                0x0000000008014734       0x20 build/decoder/STM32F30x_decoder.o
                0x0000000008014734                CAN_TDH2R_fields
 .rodata.CAN_TDL0R_fields
                0x0000000008014754       0x20 build/decoder/STM32F30x_decoder.o
                0x0000000008014754                CAN_TDL0R_fields
 .rodata.CAN_TDL1R_fields
                0x0000000008014774       0x20 build/decoder/STM32F30x_decoder.o
                0x0000000008014774                CAN_TDL1R_fields
 .rodata.CAN_TDL2R_fields
                0x0000000008014794       0x20 build/decoder/STM32F30x_decoder.o
                0x0000000008014794                CAN_TDL2R_fields
 .rodata.CAN_TDT0R_fields
                0x00000000080147b4       0x18 build/decoder/STM32F30x_decoder.o
                0x00000000080147b4                CAN_TDT0R_fields
 .rodata.CAN_TDT1R_fields
                0x00000000080147cc       0x18 build/decoder/STM32F30x_decoder.o
                0x00000000080147cc                CAN_TDT1R_fields
 .rodata.CAN_TDT2R_fields
                0x00000000080147e4       0x18 build/decoder/STM32F30x_decoder.o
                0x00000000080147e4                CAN_TDT2R_fields
 .rodata.CAN_TI0R_fields
                0x00000000080147fc       0x28 build/decoder/STM32F30x_decoder.o
                0x00000000080147fc                CAN_TI0R_fields
 .rodata.CAN_TI1R_fields
                0x0000000008014824       0x28 build/decoder/STM32F30x_decoder.o
                0x0000000008014824                CAN_TI1R_fields
 .rodata.CAN_TI2R_fields
                0x000000000801484c       0x28 build/decoder/STM32F30x_decoder.o
                0x000000000801484c                CAN_TI2R_fields
 .rodata.CAN_TSR_fields
                0x0000000008014874       0xb0 build/decoder/STM32F30x_decoder.o
                0x0000000008014874                CAN_TSR_fields
 .rodata.CAN_registers
                0x0000000008014924      0x590 build/decoder/STM32F30x_decoder.o
                0x0000000008014924                CAN_registers
 .rodata.COMP_COMP1_CSR_fields
                0x0000000008014eb4       0x50 build/decoder/STM32F30x_decoder.o
                0x0000000008014eb4                COMP_COMP1_CSR_fields
 .rodata.COMP_COMP2_CSR_fields
                0x0000000008014f04       0x58 build/decoder/STM32F30x_decoder.o
                0x0000000008014f04                COMP_COMP2_CSR_fields
 .rodata.COMP_COMP3_CSR_fields
                0x0000000008014f5c       0x50 build/decoder/STM32F30x_decoder.o
                0x0000000008014f5c                COMP_COMP3_CSR_fields
 .rodata.COMP_COMP4_CSR_fields
                0x0000000008014fac       0x58 build/decoder/STM32F30x_decoder.o
                0x0000000008014fac                COMP_COMP4_CSR_fields
 .rodata.COMP_COMP5_CSR_fields
                0x0000000008015004       0x50 build/decoder/STM32F30x_decoder.o
                0x0000000008015004                COMP_COMP5_CSR_fields
 .rodata.COMP_COMP6_CSR_fields
                0x0000000008015054       0x58 build/decoder/STM32F30x_decoder.o
                0x0000000008015054                COMP_COMP6_CSR_fields
 .rodata.COMP_COMP7_CSR_fields
                0x00000000080150ac       0x50 build/decoder/STM32F30x_decoder.o
                0x00000000080150ac                COMP_COMP7_CSR_fields
 .rodata.COMP_registers
                0x00000000080150fc       0x70 build/decoder/STM32F30x_decoder.o
                0x00000000080150fc                COMP_registers
 .rodata.CRC_CR_fields
                0x000000000801516c       0x20 build/decoder/STM32F30x_decoder.o
                0x000000000801516c                CRC_CR_fields
 .rodata.CRC_DR_fields
                0x000000000801518c        0x8 build/decoder/STM32F30x_decoder.o
                0x000000000801518c                CRC_DR_fields
 .rodata.CRC_IDR_fields
                0x0000000008015194        0x8 build/decoder/STM32F30x_decoder.o
                0x0000000008015194                CRC_IDR_fields
 .rodata.CRC_INIT_fields
                0x000000000801519c        0x8 build/decoder/STM32F30x_decoder.o
                0x000000000801519c                CRC_INIT_fields
 .rodata.CRC_POL_fields
                0x00000000080151a4        0x8 build/decoder/STM32F30x_decoder.o
                0x00000000080151a4                CRC_POL_fields
 .rodata.CRC_registers
                0x00000000080151ac       0x50 build/decoder/STM32F30x_decoder.o
                0x00000000080151ac                CRC_registers
 .rodata.DAC_CR_fields
                0x00000000080151fc       0x80 build/decoder/STM32F30x_decoder.o
                0x00000000080151fc                DAC_CR_fields
 .rodata.DAC_DHR12L1_fields
                0x000000000801527c        0x8 build/decoder/STM32F30x_decoder.o
                0x000000000801527c                DAC_DHR12L1_fields
 .rodata.DAC_DHR12L2_fields
                0x0000000008015284        0x8 build/decoder/STM32F30x_decoder.o
                0x0000000008015284                DAC_DHR12L2_fields
 .rodata.DAC_DHR12LD_fields
                0x000000000801528c       0x10 build/decoder/STM32F30x_decoder.o
                0x000000000801528c                DAC_DHR12LD_fields
 .rodata.DAC_DHR12R1_fields
                0x000000000801529c        0x8 build/decoder/STM32F30x_decoder.o
                0x000000000801529c                DAC_DHR12R1_fields
 .rodata.DAC_DHR12R2_fields
                0x00000000080152a4        0x8 build/decoder/STM32F30x_decoder.o
                0x00000000080152a4                DAC_DHR12R2_fields
 .rodata.DAC_DHR12RD_fields
                0x00000000080152ac       0x10 build/decoder/STM32F30x_decoder.o
                0x00000000080152ac                DAC_DHR12RD_fields
 .rodata.DAC_DHR8R1_fields
                0x00000000080152bc        0x8 build/decoder/STM32F30x_decoder.o
                0x00000000080152bc                DAC_DHR8R1_fields
 .rodata.DAC_DHR8R2_fields
                0x00000000080152c4        0x8 build/decoder/STM32F30x_decoder.o
                0x00000000080152c4                DAC_DHR8R2_fields
 .rodata.DAC_DHR8RD_fields
                0x00000000080152cc       0x10 build/decoder/STM32F30x_decoder.o
                0x00000000080152cc                DAC_DHR8RD_fields
 .rodata.DAC_DOR1_fields
                0x00000000080152dc        0x8 build/decoder/STM32F30x_decoder.o
                0x00000000080152dc                DAC_DOR1_fields
 .rodata.DAC_DOR2_fields
                0x00000000080152e4        0x8 build/decoder/STM32F30x_decoder.o
                0x00000000080152e4                DAC_DOR2_fields
 .rodata.DAC_SR_fields
                0x00000000080152ec       0x10 build/decoder/STM32F30x_decoder.o
                0x00000000080152ec                DAC_SR_fields
 .rodata.DAC_SWTRIGR_fields
                0x00000000080152fc       0x10 build/decoder/STM32F30x_decoder.o
                0x00000000080152fc                DAC_SWTRIGR_fields
 .rodata.DAC_registers
                0x000000000801530c       0xe0 build/decoder/STM32F30x_decoder.o
                0x000000000801530c                DAC_registers
 .rodata.DBGMCU_APB1FZ_fields
                0x00000000080153ec       0x80 build/decoder/STM32F30x_decoder.o
                0x00000000080153ec                DBGMCU_APB1FZ_fields
 .rodata.DBGMCU_APB2FZ_fields
                0x000000000801546c       0x20 build/decoder/STM32F30x_decoder.o
                0x000000000801546c                DBGMCU_APB2FZ_fields
 .rodata.DBGMCU_CR_fields
                0x000000000801548c       0x28 build/decoder/STM32F30x_decoder.o
                0x000000000801548c                DBGMCU_CR_fields
 .rodata.DBGMCU_IDCODE_fields
                0x00000000080154b4       0x10 build/decoder/STM32F30x_decoder.o
                0x00000000080154b4                DBGMCU_IDCODE_fields
 .rodata.DBGMCU_registers
                0x00000000080154c4       0x40 build/decoder/STM32F30x_decoder.o
                0x00000000080154c4                DBGMCU_registers
 .rodata.DMA1_CCR1_fields
                0x0000000008015504       0x60 build/decoder/STM32F30x_decoder.o
                0x0000000008015504                DMA1_CCR1_fields
 .rodata.DMA1_CCR2_fields
                0x0000000008015564       0x60 build/decoder/STM32F30x_decoder.o
                0x0000000008015564                DMA1_CCR2_fields
 .rodata.DMA1_CCR3_fields
                0x00000000080155c4       0x60 build/decoder/STM32F30x_decoder.o
                0x00000000080155c4                DMA1_CCR3_fields
 .rodata.DMA1_CCR4_fields
                0x0000000008015624       0x60 build/decoder/STM32F30x_decoder.o
                0x0000000008015624                DMA1_CCR4_fields
 .rodata.DMA1_CCR5_fields
                0x0000000008015684       0x60 build/decoder/STM32F30x_decoder.o
                0x0000000008015684                DMA1_CCR5_fields
 .rodata.DMA1_CCR6_fields
                0x00000000080156e4       0x60 build/decoder/STM32F30x_decoder.o
                0x00000000080156e4                DMA1_CCR6_fields
 .rodata.DMA1_CCR7_fields
                0x0000000008015744       0x60 build/decoder/STM32F30x_decoder.o
                0x0000000008015744                DMA1_CCR7_fields
 .rodata.DMA1_CMAR1_fields
                0x00000000080157a4        0x8 build/decoder/STM32F30x_decoder.o
                0x00000000080157a4                DMA1_CMAR1_fields
 .rodata.DMA1_CMAR2_fields
                0x00000000080157ac        0x8 build/decoder/STM32F30x_decoder.o
                0x00000000080157ac                DMA1_CMAR2_fields
 .rodata.DMA1_CMAR3_fields
                0x00000000080157b4        0x8 build/decoder/STM32F30x_decoder.o
                0x00000000080157b4                DMA1_CMAR3_fields
 .rodata.DMA1_CMAR4_fields
                0x00000000080157bc        0x8 build/decoder/STM32F30x_decoder.o
                0x00000000080157bc                DMA1_CMAR4_fields
 .rodata.DMA1_CMAR5_fields
                0x00000000080157c4        0x8 build/decoder/STM32F30x_decoder.o
                0x00000000080157c4                DMA1_CMAR5_fields
 .rodata.DMA1_CMAR6_fields
                0x00000000080157cc        0x8 build/decoder/STM32F30x_decoder.o
                0x00000000080157cc                DMA1_CMAR6_fields
 .rodata.DMA1_CMAR7_fields
                0x00000000080157d4        0x8 build/decoder/STM32F30x_decoder.o
                0x00000000080157d4                DMA1_CMAR7_fields
 .rodata.DMA1_CNDTR1_fields
                0x00000000080157dc        0x8 build/decoder/STM32F30x_decoder.o
                0x00000000080157dc                DMA1_CNDTR1_fields
 .rodata.DMA1_CNDTR2_fields
                0x00000000080157e4        0x8 build/decoder/STM32F30x_decoder.o
                0x00000000080157e4                DMA1_CNDTR2_fields
 .rodata.DMA1_CNDTR3_fields
                0x00000000080157ec        0x8 build/decoder/STM32F30x_decoder.o
                0x00000000080157ec                DMA1_CNDTR3_fields
 .rodata.DMA1_CNDTR4_fields
                0x00000000080157f4        0x8 build/decoder/STM32F30x_decoder.o
                0x00000000080157f4                DMA1_CNDTR4_fields
 .rodata.DMA1_CNDTR5_fields
                0x00000000080157fc        0x8 build/decoder/STM32F30x_decoder.o
                0x00000000080157fc                DMA1_CNDTR5_fields
 .rodata.DMA1_CNDTR6_fields
                0x0000000008015804        0x8 build/decoder/STM32F30x_decoder.o
                0x0000000008015804                DMA1_CNDTR6_fields
 .rodata.DMA1_CNDTR7_fields
                0x000000000801580c        0x8 build/decoder/STM32F30x_decoder.o
                0x000000000801580c                DMA1_CNDTR7_fields
 .rodata.DMA1_CPAR1_fields
                0x0000000008015814        0x8 build/decoder/STM32F30x_decoder.o
                0x0000000008015814                DMA1_CPAR1_fields
 .rodata.DMA1_CPAR2_fields
                0x000000000801581c        0x8 build/decoder/STM32F30x_decoder.o
                0x000000000801581c                DMA1_CPAR2_fields
 .rodata.DMA1_CPAR3_fields
                0x0000000008015824        0x8 build/decoder/STM32F30x_decoder.o
                0x0000000008015824                DMA1_CPAR3_fields
 .rodata.DMA1_CPAR4_fields
                0x000000000801582c        0x8 build/decoder/STM32F30x_decoder.o
                0x000000000801582c                DMA1_CPAR4_fields
 .rodata.DMA1_CPAR5_fields
                0x0000000008015834        0x8 build/decoder/STM32F30x_decoder.o
                0x0000000008015834                DMA1_CPAR5_fields
 .rodata.DMA1_CPAR6_fields
                0x000000000801583c        0x8 build/decoder/STM32F30x_decoder.o
                0x000000000801583c                DMA1_CPAR6_fields
 .rodata.DMA1_CPAR7_fields
                0x0000000008015844        0x8 build/decoder/STM32F30x_decoder.o
                0x0000000008015844                DMA1_CPAR7_fields
 .rodata.DMA1_IFCR_fields
                0x000000000801584c       0xe0 build/decoder/STM32F30x_decoder.o
                0x000000000801584c                DMA1_IFCR_fields
 .rodata.DMA1_ISR_fields
                0x000000000801592c       0xe0 build/decoder/STM32F30x_decoder.o
                0x000000000801592c                DMA1_ISR_fields
 .rodata.DMA1_registers
                0x0000000008015a0c      0x1e0 build/decoder/STM32F30x_decoder.o
                0x0000000008015a0c                DMA1_registers
 .rodata.EXTI_EMR1_fields
                0x0000000008015bec      0x100 build/decoder/STM32F30x_decoder.o
                0x0000000008015bec                EXTI_EMR1_fields
 .rodata.EXTI_EMR2_fields
                0x0000000008015cec       0x20 build/decoder/STM32F30x_decoder.o
                0x0000000008015cec                EXTI_EMR2_fields
 .rodata.EXTI_FTSR1_fields
                0x0000000008015d0c       0xd0 build/decoder/STM32F30x_decoder.o
                0x0000000008015d0c                EXTI_FTSR1_fields
 .rodata.EXTI_FTSR2_fields
                0x0000000008015ddc       0x10 build/decoder/STM32F30x_decoder.o
                0x0000000008015ddc                EXTI_FTSR2_fields
 .rodata.EXTI_IMR1_fields
                0x0000000008015dec      0x100 build/decoder/STM32F30x_decoder.o
                0x0000000008015dec                EXTI_IMR1_fields
 .rodata.EXTI_IMR2_fields
                0x0000000008015eec       0x20 build/decoder/STM32F30x_decoder.o
                0x0000000008015eec                EXTI_IMR2_fields
 .rodata.EXTI_PR1_fields
                0x0000000008015f0c       0xd0 build/decoder/STM32F30x_decoder.o
                0x0000000008015f0c                EXTI_PR1_fields
 .rodata.EXTI_PR2_fields
                0x0000000008015fdc       0x10 build/decoder/STM32F30x_decoder.o
                0x0000000008015fdc                EXTI_PR2_fields
 .rodata.EXTI_RTSR1_fields
                0x0000000008015fec       0xd0 build/decoder/STM32F30x_decoder.o
                0x0000000008015fec                EXTI_RTSR1_fields
 .rodata.EXTI_RTSR2_fields
                0x00000000080160bc       0x10 build/decoder/STM32F30x_decoder.o
                0x00000000080160bc                EXTI_RTSR2_fields
 .rodata.EXTI_SWIER1_fields
                0x00000000080160cc       0xd0 build/decoder/STM32F30x_decoder.o
                0x00000000080160cc                EXTI_SWIER1_fields
 .rodata.EXTI_SWIER2_fields
                0x000000000801619c       0x10 build/decoder/STM32F30x_decoder.o
                0x000000000801619c                EXTI_SWIER2_fields
 .rodata.EXTI_registers
                0x00000000080161ac       0xc0 build/decoder/STM32F30x_decoder.o
                0x00000000080161ac                EXTI_registers
 .rodata.FPU_CPACR_fields
                0x000000000801626c       0x50 build/decoder/STM32F30x_decoder.o
                0x000000000801626c                FPU_CPACR_fields
 .rodata.FPU_FPCAR_fields
                0x00000000080162bc        0x8 build/decoder/STM32F30x_decoder.o
                0x00000000080162bc                FPU_FPCAR_fields
 .rodata.FPU_FPCCR_fields
                0x00000000080162c4       0x48 build/decoder/STM32F30x_decoder.o
                0x00000000080162c4                FPU_FPCCR_fields
 .rodata.FPU_FPDSCR_fields
                0x000000000801630c       0x20 build/decoder/STM32F30x_decoder.o
                0x000000000801630c                FPU_FPDSCR_fields
 .rodata.FPU_MVFR0_fields
                0x000000000801632c       0x40 build/decoder/STM32F30x_decoder.o
                0x000000000801632c                FPU_MVFR0_fields
 .rodata.FPU_MVFR1_fields
                0x000000000801636c       0x20 build/decoder/STM32F30x_decoder.o
                0x000000000801636c                FPU_MVFR1_fields
 .rodata.FPU_registers
                0x000000000801638c       0x60 build/decoder/STM32F30x_decoder.o
                0x000000000801638c                FPU_registers
 .rodata.Flash_ACR_fields
                0x00000000080163ec       0x18 build/decoder/STM32F30x_decoder.o
                0x00000000080163ec                Flash_ACR_fields
 .rodata.Flash_AR_fields
                0x0000000008016404        0x8 build/decoder/STM32F30x_decoder.o
                0x0000000008016404                Flash_AR_fields
 .rodata.Flash_CR_fields
                0x000000000801640c       0x58 build/decoder/STM32F30x_decoder.o
                0x000000000801640c                Flash_CR_fields
 .rodata.Flash_KEYR_fields
                0x0000000008016464        0x8 build/decoder/STM32F30x_decoder.o
                0x0000000008016464                Flash_KEYR_fields
 .rodata.Flash_OBR_fields
                0x000000000801646c       0x58 build/decoder/STM32F30x_decoder.o
                0x000000000801646c                Flash_OBR_fields
 .rodata.Flash_OPTKEYR_fields
                0x00000000080164c4        0x8 build/decoder/STM32F30x_decoder.o
                0x00000000080164c4                Flash_OPTKEYR_fields
 .rodata.Flash_SR_fields
                0x00000000080164cc       0x20 build/decoder/STM32F30x_decoder.o
                0x00000000080164cc                Flash_SR_fields
 .rodata.Flash_WRPR_fields
                0x00000000080164ec        0x8 build/decoder/STM32F30x_decoder.o
                0x00000000080164ec                Flash_WRPR_fields
 .rodata.Flash_registers
                0x00000000080164f4       0x80 build/decoder/STM32F30x_decoder.o
                0x00000000080164f4                Flash_registers
 .rodata.GPIOA_AFRH_fields
                0x0000000008016574       0x40 build/decoder/STM32F30x_decoder.o
                0x0000000008016574                GPIOA_AFRH_fields
 .rodata.GPIOA_AFRL_fields
                0x00000000080165b4       0x40 build/decoder/STM32F30x_decoder.o
                0x00000000080165b4                GPIOA_AFRL_fields
 .rodata.GPIOA_BRR_fields
                0x00000000080165f4       0x80 build/decoder/STM32F30x_decoder.o
                0x00000000080165f4                GPIOA_BRR_fields
 .rodata.GPIOA_BSRR_fields
                0x0000000008016674      0x100 build/decoder/STM32F30x_decoder.o
                0x0000000008016674                GPIOA_BSRR_fields
 .rodata.GPIOA_IDR_fields
                0x0000000008016774       0x80 build/decoder/STM32F30x_decoder.o
                0x0000000008016774                GPIOA_IDR_fields
 .rodata.GPIOA_LCKR_fields
                0x00000000080167f4       0x88 build/decoder/STM32F30x_decoder.o
                0x00000000080167f4                GPIOA_LCKR_fields
 .rodata.GPIOA_MODER_fields
                0x000000000801687c       0x80 build/decoder/STM32F30x_decoder.o
                0x000000000801687c                GPIOA_MODER_fields
 .rodata.GPIOA_ODR_fields
                0x00000000080168fc       0x80 build/decoder/STM32F30x_decoder.o
                0x00000000080168fc                GPIOA_ODR_fields
 .rodata.GPIOA_OSPEEDR_fields
                0x000000000801697c       0x80 build/decoder/STM32F30x_decoder.o
                0x000000000801697c                GPIOA_OSPEEDR_fields
 .rodata.GPIOA_OTYPER_fields
                0x00000000080169fc       0x80 build/decoder/STM32F30x_decoder.o
                0x00000000080169fc                GPIOA_OTYPER_fields
 .rodata.GPIOA_PUPDR_fields
                0x0000000008016a7c       0x80 build/decoder/STM32F30x_decoder.o
                0x0000000008016a7c                GPIOA_PUPDR_fields
 .rodata.GPIOA_registers
                0x0000000008016afc       0xb0 build/decoder/STM32F30x_decoder.o
                0x0000000008016afc                GPIOA_registers
 .rodata.GPIOB_AFRH_fields
                0x0000000008016bac       0x40 build/decoder/STM32F30x_decoder.o
                0x0000000008016bac                GPIOB_AFRH_fields
 .rodata.GPIOB_AFRL_fields
                0x0000000008016bec       0x40 build/decoder/STM32F30x_decoder.o
                0x0000000008016bec                GPIOB_AFRL_fields
 .rodata.GPIOB_BRR_fields
                0x0000000008016c2c       0x80 build/decoder/STM32F30x_decoder.o
                0x0000000008016c2c                GPIOB_BRR_fields
 .rodata.GPIOB_BSRR_fields
                0x0000000008016cac      0x100 build/decoder/STM32F30x_decoder.o
                0x0000000008016cac                GPIOB_BSRR_fields
 .rodata.GPIOB_IDR_fields
                0x0000000008016dac       0x80 build/decoder/STM32F30x_decoder.o
                0x0000000008016dac                GPIOB_IDR_fields
 .rodata.GPIOB_LCKR_fields
                0x0000000008016e2c       0x88 build/decoder/STM32F30x_decoder.o
                0x0000000008016e2c                GPIOB_LCKR_fields
 .rodata.GPIOB_MODER_fields
                0x0000000008016eb4       0x80 build/decoder/STM32F30x_decoder.o
                0x0000000008016eb4                GPIOB_MODER_fields
 .rodata.GPIOB_ODR_fields
                0x0000000008016f34       0x80 build/decoder/STM32F30x_decoder.o
                0x0000000008016f34                GPIOB_ODR_fields
 .rodata.GPIOB_OSPEEDR_fields
                0x0000000008016fb4       0x80 build/decoder/STM32F30x_decoder.o
                0x0000000008016fb4                GPIOB_OSPEEDR_fields
 .rodata.GPIOB_OTYPER_fields
                0x0000000008017034       0x80 build/decoder/STM32F30x_decoder.o
                0x0000000008017034                GPIOB_OTYPER_fields
 .rodata.GPIOB_PUPDR_fields
                0x00000000080170b4       0x80 build/decoder/STM32F30x_decoder.o
                0x00000000080170b4                GPIOB_PUPDR_fields
 .rodata.GPIOB_registers
                0x0000000008017134       0xb0 build/decoder/STM32F30x_decoder.o
                0x0000000008017134                GPIOB_registers
 .rodata.I2C1_CR1_fields
                0x00000000080171e4       0xa8 build/decoder/STM32F30x_decoder.o
                0x00000000080171e4                I2C1_CR1_fields
 .rodata.I2C1_CR2_fields
                0x000000000801728c       0x68 build/decoder/STM32F30x_decoder.o
                0x000000000801728c                I2C1_CR2_fields
 .rodata.I2C1_ICR_fields
                0x00000000080172f4       0x48 build/decoder/STM32F30x_decoder.o
                0x00000000080172f4                I2C1_ICR_fields
 .rodata.I2C1_ISR_fields
                0x000000000801733c       0x88 build/decoder/STM32F30x_decoder.o
                0x000000000801733c                I2C1_ISR_fields
 .rodata.I2C1_OAR1_fields
                0x00000000080173c4       0x28 build/decoder/STM32F30x_decoder.o
                0x00000000080173c4                I2C1_OAR1_fields
 .rodata.I2C1_OAR2_fields
                0x00000000080173ec       0x18 build/decoder/STM32F30x_decoder.o
                0x00000000080173ec                I2C1_OAR2_fields
 .rodata.I2C1_PECR_fields
                0x0000000008017404        0x8 build/decoder/STM32F30x_decoder.o
                0x0000000008017404                I2C1_PECR_fields
 .rodata.I2C1_RXDR_fields
                0x000000000801740c        0x8 build/decoder/STM32F30x_decoder.o
                0x000000000801740c                I2C1_RXDR_fields
 .rodata.I2C1_TIMEOUTR_fields
                0x0000000008017414       0x28 build/decoder/STM32F30x_decoder.o
                0x0000000008017414                I2C1_TIMEOUTR_fields
 .rodata.I2C1_TIMINGR_fields
                0x000000000801743c       0x28 build/decoder/STM32F30x_decoder.o
                0x000000000801743c                I2C1_TIMINGR_fields
 .rodata.I2C1_TXDR_fields
                0x0000000008017464        0x8 build/decoder/STM32F30x_decoder.o
                0x0000000008017464                I2C1_TXDR_fields
 .rodata.I2C1_registers
                0x000000000801746c       0xb0 build/decoder/STM32F30x_decoder.o
                0x000000000801746c                I2C1_registers
 .rodata.IWDG_KR_fields
                0x000000000801751c        0x8 build/decoder/STM32F30x_decoder.o
                0x000000000801751c                IWDG_KR_fields
 .rodata.IWDG_PR_fields
                0x0000000008017524        0x8 build/decoder/STM32F30x_decoder.o
                0x0000000008017524                IWDG_PR_fields
 .rodata.IWDG_RLR_fields
                0x000000000801752c        0x8 build/decoder/STM32F30x_decoder.o
                0x000000000801752c                IWDG_RLR_fields
 .rodata.IWDG_SR_fields
                0x0000000008017534       0x18 build/decoder/STM32F30x_decoder.o
                0x0000000008017534                IWDG_SR_fields
 .rodata.IWDG_WINR_fields
                0x000000000801754c        0x8 build/decoder/STM32F30x_decoder.o
                0x000000000801754c                IWDG_WINR_fields
 .rodata.IWDG_registers
                0x0000000008017554       0x50 build/decoder/STM32F30x_decoder.o
                0x0000000008017554                IWDG_registers
 .rodata.NVIC_IABR0_fields
                0x00000000080175a4        0x8 build/decoder/STM32F30x_decoder.o
                0x00000000080175a4                NVIC_IABR0_fields
 .rodata.NVIC_IABR1_fields
                0x00000000080175ac        0x8 build/decoder/STM32F30x_decoder.o
                0x00000000080175ac                NVIC_IABR1_fields
 .rodata.NVIC_IABR2_fields
                0x00000000080175b4        0x8 build/decoder/STM32F30x_decoder.o
                0x00000000080175b4                NVIC_IABR2_fields
 .rodata.NVIC_ICER0_fields
                0x00000000080175bc        0x8 build/decoder/STM32F30x_decoder.o
                0x00000000080175bc                NVIC_ICER0_fields
 .rodata.NVIC_ICER1_fields
                0x00000000080175c4        0x8 build/decoder/STM32F30x_decoder.o
                0x00000000080175c4                NVIC_ICER1_fields
 .rodata.NVIC_ICER2_fields
                0x00000000080175cc        0x8 build/decoder/STM32F30x_decoder.o
                0x00000000080175cc                NVIC_ICER2_fields
 .rodata.NVIC_ICPR0_fields
                0x00000000080175d4        0x8 build/decoder/STM32F30x_decoder.o
                0x00000000080175d4                NVIC_ICPR0_fields
 .rodata.NVIC_ICPR1_fields
                0x00000000080175dc        0x8 build/decoder/STM32F30x_decoder.o
                0x00000000080175dc                NVIC_ICPR1_fields
 .rodata.NVIC_ICPR2_fields
                0x00000000080175e4        0x8 build/decoder/STM32F30x_decoder.o
                0x00000000080175e4                NVIC_ICPR2_fields
 .rodata.NVIC_ICTR_fields
                0x00000000080175ec        0x8 build/decoder/STM32F30x_decoder.o
                0x00000000080175ec                NVIC_ICTR_fields
 .rodata.NVIC_IPR0_fields
                0x00000000080175f4       0x20 build/decoder/STM32F30x_decoder.o
                0x00000000080175f4                NVIC_IPR0_fields
 .rodata.NVIC_IPR10_fields
                0x0000000008017614       0x20 build/decoder/STM32F30x_decoder.o
                0x0000000008017614                NVIC_IPR10_fields
 .rodata.NVIC_IPR11_fields
                0x0000000008017634       0x20 build/decoder/STM32F30x_decoder.o
                0x0000000008017634                NVIC_IPR11_fields
 .rodata.NVIC_IPR12_fields
                0x0000000008017654       0x20 build/decoder/STM32F30x_decoder.o
                0x0000000008017654                NVIC_IPR12_fields
 .rodata.NVIC_IPR13_fields
                0x0000000008017674       0x20 build/decoder/STM32F30x_decoder.o
                0x0000000008017674                NVIC_IPR13_fields
 .rodata.NVIC_IPR14_fields
                0x0000000008017694       0x20 build/decoder/STM32F30x_decoder.o
                0x0000000008017694                NVIC_IPR14_fields
 .rodata.NVIC_IPR15_fields
                0x00000000080176b4       0x20 build/decoder/STM32F30x_decoder.o
                0x00000000080176b4                NVIC_IPR15_fields
 .rodata.NVIC_IPR16_fields
                0x00000000080176d4       0x20 build/decoder/STM32F30x_decoder.o
                0x00000000080176d4                NVIC_IPR16_fields
 .rodata.NVIC_IPR17_fields
                0x00000000080176f4       0x20 build/decoder/STM32F30x_decoder.o
                0x00000000080176f4                NVIC_IPR17_fields
 .rodata.NVIC_IPR18_fields
                0x0000000008017714       0x20 build/decoder/STM32F30x_decoder.o
                0x0000000008017714                NVIC_IPR18_fields
 .rodata.NVIC_IPR19_fields
                0x0000000008017734       0x20 build/decoder/STM32F30x_decoder.o
                0x0000000008017734                NVIC_IPR19_fields
 .rodata.NVIC_IPR1_fields
                0x0000000008017754       0x20 build/decoder/STM32F30x_decoder.o
                0x0000000008017754                NVIC_IPR1_fields
 .rodata.NVIC_IPR20_fields
                0x0000000008017774       0x20 build/decoder/STM32F30x_decoder.o
                0x0000000008017774                NVIC_IPR20_fields
 .rodata.NVIC_IPR2_fields
                0x0000000008017794       0x20 build/decoder/STM32F30x_decoder.o
                0x0000000008017794                NVIC_IPR2_fields
 .rodata.NVIC_IPR3_fields
                0x00000000080177b4       0x20 build/decoder/STM32F30x_decoder.o
                0x00000000080177b4                NVIC_IPR3_fields
 .rodata.NVIC_IPR4_fields
                0x00000000080177d4       0x20 build/decoder/STM32F30x_decoder.o
                0x00000000080177d4                NVIC_IPR4_fields
 .rodata.NVIC_IPR5_fields
                0x00000000080177f4       0x20 build/decoder/STM32F30x_decoder.o
                0x00000000080177f4                NVIC_IPR5_fields
 .rodata.NVIC_IPR6_fields
                0x0000000008017814       0x20 build/decoder/STM32F30x_decoder.o
                0x0000000008017814                NVIC_IPR6_fields
 .rodata.NVIC_IPR7_fields
                0x0000000008017834       0x20 build/decoder/STM32F30x_decoder.o
                0x0000000008017834                NVIC_IPR7_fields
 .rodata.NVIC_IPR8_fields
                0x0000000008017854       0x20 build/decoder/STM32F30x_decoder.o
                0x0000000008017854                NVIC_IPR8_fields
 .rodata.NVIC_IPR9_fields
                0x0000000008017874       0x20 build/decoder/STM32F30x_decoder.o
                0x0000000008017874                NVIC_IPR9_fields
 .rodata.NVIC_ISER0_fields
                0x0000000008017894        0x8 build/decoder/STM32F30x_decoder.o
                0x0000000008017894                NVIC_ISER0_fields
 .rodata.NVIC_ISER1_fields
                0x000000000801789c        0x8 build/decoder/STM32F30x_decoder.o
                0x000000000801789c                NVIC_ISER1_fields
 .rodata.NVIC_ISER2_fields
                0x00000000080178a4        0x8 build/decoder/STM32F30x_decoder.o
                0x00000000080178a4                NVIC_ISER2_fields
 .rodata.NVIC_ISPR0_fields
                0x00000000080178ac        0x8 build/decoder/STM32F30x_decoder.o
                0x00000000080178ac                NVIC_ISPR0_fields
 .rodata.NVIC_ISPR1_fields
                0x00000000080178b4        0x8 build/decoder/STM32F30x_decoder.o
                0x00000000080178b4                NVIC_ISPR1_fields
 .rodata.NVIC_ISPR2_fields
                0x00000000080178bc        0x8 build/decoder/STM32F30x_decoder.o
                0x00000000080178bc                NVIC_ISPR2_fields
 .rodata.NVIC_STIR_fields
                0x00000000080178c4        0x8 build/decoder/STM32F30x_decoder.o
                0x00000000080178c4                NVIC_STIR_fields
 .rodata.NVIC_registers
                0x00000000080178cc      0x260 build/decoder/STM32F30x_decoder.o
                0x00000000080178cc                NVIC_registers
 .rodata.OPAMP_OPAMP1_CR_fields
                0x0000000008017b2c       0x80 build/decoder/STM32F30x_decoder.o
                0x0000000008017b2c                OPAMP_OPAMP1_CR_fields
 .rodata.OPAMP_OPAMP2_CR_fields
                0x0000000008017bac       0x80 build/decoder/STM32F30x_decoder.o
                0x0000000008017bac                OPAMP_OPAMP2_CR_fields
 .rodata.OPAMP_OPAMP3_CR_fields
                0x0000000008017c2c       0x80 build/decoder/STM32F30x_decoder.o
                0x0000000008017c2c                OPAMP_OPAMP3_CR_fields
 .rodata.OPAMP_OPAMP4_CR_fields
                0x0000000008017cac       0x80 build/decoder/STM32F30x_decoder.o
                0x0000000008017cac                OPAMP_OPAMP4_CR_fields
 .rodata.OPAMP_registers
                0x0000000008017d2c       0x40 build/decoder/STM32F30x_decoder.o
                0x0000000008017d2c                OPAMP_registers
 .rodata.PWR_CR_fields
                0x0000000008017d6c       0x38 build/decoder/STM32F30x_decoder.o
                0x0000000008017d6c                PWR_CR_fields
 .rodata.PWR_CSR_fields
                0x0000000008017da4       0x28 build/decoder/STM32F30x_decoder.o
                0x0000000008017da4                PWR_CSR_fields
 .rodata.PWR_registers
                0x0000000008017dcc       0x20 build/decoder/STM32F30x_decoder.o
                0x0000000008017dcc                PWR_registers
 .rodata.Peripherals
                0x0000000008017dec      0x370 build/decoder/STM32F30x_decoder.o
                0x0000000008017dec                Peripherals
 .rodata.RCC_AHBENR_fields
                0x000000000801815c       0x70 build/decoder/STM32F30x_decoder.o
                0x000000000801815c                RCC_AHBENR_fields
 .rodata.RCC_AHBRSTR_fields
                0x00000000080181cc       0x48 build/decoder/STM32F30x_decoder.o
                0x00000000080181cc                RCC_AHBRSTR_fields
 .rodata.RCC_APB1ENR_fields
                0x0000000008018214       0x78 build/decoder/STM32F30x_decoder.o
                0x0000000008018214                RCC_APB1ENR_fields
 .rodata.RCC_APB1RSTR_fields
                0x000000000801828c       0x90 build/decoder/STM32F30x_decoder.o
                0x000000000801828c                RCC_APB1RSTR_fields
 .rodata.RCC_APB2ENR_fields
                0x000000000801831c       0x40 build/decoder/STM32F30x_decoder.o
                0x000000000801831c                RCC_APB2ENR_fields
 .rodata.RCC_APB2RSTR_fields
                0x000000000801835c       0x40 build/decoder/STM32F30x_decoder.o
                0x000000000801835c                RCC_APB2RSTR_fields
 .rodata.RCC_BDCR_fields
                0x000000000801839c       0x38 build/decoder/STM32F30x_decoder.o
                0x000000000801839c                RCC_BDCR_fields
 .rodata.RCC_CFGR2_fields
                0x00000000080183d4       0x18 build/decoder/STM32F30x_decoder.o
                0x00000000080183d4                RCC_CFGR2_fields
 .rodata.RCC_CFGR3_fields
                0x00000000080183ec       0x48 build/decoder/STM32F30x_decoder.o
                0x00000000080183ec                RCC_CFGR3_fields
 .rodata.RCC_CFGR_fields
                0x0000000008018434       0x60 build/decoder/STM32F30x_decoder.o
                0x0000000008018434                RCC_CFGR_fields
 .rodata.RCC_CIR_fields
                0x0000000008018494       0x88 build/decoder/STM32F30x_decoder.o
                0x0000000008018494                RCC_CIR_fields
 .rodata.RCC_CR_fields
                0x000000000801851c       0x50 build/decoder/STM32F30x_decoder.o
                0x000000000801851c                RCC_CR_fields
 .rodata.RCC_CSR_fields
                0x000000000801856c       0x50 build/decoder/STM32F30x_decoder.o
                0x000000000801856c                RCC_CSR_fields
 .rodata.RCC_registers
                0x00000000080185bc       0xd0 build/decoder/STM32F30x_decoder.o
                0x00000000080185bc                RCC_registers
 .rodata.RTC_ALRMAR_fields
                0x000000000801868c       0x70 build/decoder/STM32F30x_decoder.o
                0x000000000801868c                RTC_ALRMAR_fields
 .rodata.RTC_ALRMASSR_fields
                0x00000000080186fc       0x10 build/decoder/STM32F30x_decoder.o
                0x00000000080186fc                RTC_ALRMASSR_fields
 .rodata.RTC_ALRMBR_fields
                0x000000000801870c       0x70 build/decoder/STM32F30x_decoder.o
                0x000000000801870c                RTC_ALRMBR_fields
 .rodata.RTC_ALRMBSSR_fields
                0x000000000801877c       0x10 build/decoder/STM32F30x_decoder.o
                0x000000000801877c                RTC_ALRMBSSR_fields
 .rodata.RTC_BKP0R_fields
                0x000000000801878c        0x8 build/decoder/STM32F30x_decoder.o
                0x000000000801878c                RTC_BKP0R_fields
 .rodata.RTC_BKP10R_fields
                0x0000000008018794        0x8 build/decoder/STM32F30x_decoder.o
                0x0000000008018794                RTC_BKP10R_fields
 .rodata.RTC_BKP11R_fields
                0x000000000801879c        0x8 build/decoder/STM32F30x_decoder.o
                0x000000000801879c                RTC_BKP11R_fields
 .rodata.RTC_BKP12R_fields
                0x00000000080187a4        0x8 build/decoder/STM32F30x_decoder.o
                0x00000000080187a4                RTC_BKP12R_fields
 .rodata.RTC_BKP13R_fields
                0x00000000080187ac        0x8 build/decoder/STM32F30x_decoder.o
                0x00000000080187ac                RTC_BKP13R_fields
 .rodata.RTC_BKP14R_fields
                0x00000000080187b4        0x8 build/decoder/STM32F30x_decoder.o
                0x00000000080187b4                RTC_BKP14R_fields
 .rodata.RTC_BKP15R_fields
                0x00000000080187bc        0x8 build/decoder/STM32F30x_decoder.o
                0x00000000080187bc                RTC_BKP15R_fields
 .rodata.RTC_BKP16R_fields
                0x00000000080187c4        0x8 build/decoder/STM32F30x_decoder.o
                0x00000000080187c4                RTC_BKP16R_fields
 .rodata.RTC_BKP17R_fields
                0x00000000080187cc        0x8 build/decoder/STM32F30x_decoder.o
                0x00000000080187cc                RTC_BKP17R_fields
 .rodata.RTC_BKP18R_fields
                0x00000000080187d4        0x8 build/decoder/STM32F30x_decoder.o
                0x00000000080187d4                RTC_BKP18R_fields
 .rodata.RTC_BKP19R_fields
                0x00000000080187dc        0x8 build/decoder/STM32F30x_decoder.o
                0x00000000080187dc                RTC_BKP19R_fields
 .rodata.RTC_BKP1R_fields
                0x00000000080187e4        0x8 build/decoder/STM32F30x_decoder.o
                0x00000000080187e4                RTC_BKP1R_fields
 .rodata.RTC_BKP20R_fields
                0x00000000080187ec        0x8 build/decoder/STM32F30x_decoder.o
                0x00000000080187ec                RTC_BKP20R_fields
 .rodata.RTC_BKP21R_fields
                0x00000000080187f4        0x8 build/decoder/STM32F30x_decoder.o
                0x00000000080187f4                RTC_BKP21R_fields
 .rodata.RTC_BKP22R_fields
                0x00000000080187fc        0x8 build/decoder/STM32F30x_decoder.o
                0x00000000080187fc                RTC_BKP22R_fields
 .rodata.RTC_BKP23R_fields
                0x0000000008018804        0x8 build/decoder/STM32F30x_decoder.o
                0x0000000008018804                RTC_BKP23R_fields
 .rodata.RTC_BKP24R_fields
                0x000000000801880c        0x8 build/decoder/STM32F30x_decoder.o
                0x000000000801880c                RTC_BKP24R_fields
 .rodata.RTC_BKP25R_fields
                0x0000000008018814        0x8 build/decoder/STM32F30x_decoder.o
                0x0000000008018814                RTC_BKP25R_fields
 .rodata.RTC_BKP26R_fields
                0x000000000801881c        0x8 build/decoder/STM32F30x_decoder.o
                0x000000000801881c                RTC_BKP26R_fields
 .rodata.RTC_BKP27R_fields
                0x0000000008018824        0x8 build/decoder/STM32F30x_decoder.o
                0x0000000008018824                RTC_BKP27R_fields
 .rodata.RTC_BKP28R_fields
                0x000000000801882c        0x8 build/decoder/STM32F30x_decoder.o
                0x000000000801882c                RTC_BKP28R_fields
 .rodata.RTC_BKP29R_fields
                0x0000000008018834        0x8 build/decoder/STM32F30x_decoder.o
                0x0000000008018834                RTC_BKP29R_fields
 .rodata.RTC_BKP2R_fields
                0x000000000801883c        0x8 build/decoder/STM32F30x_decoder.o
                0x000000000801883c                RTC_BKP2R_fields
 .rodata.RTC_BKP30R_fields
                0x0000000008018844        0x8 build/decoder/STM32F30x_decoder.o
                0x0000000008018844                RTC_BKP30R_fields
 .rodata.RTC_BKP31R_fields
                0x000000000801884c        0x8 build/decoder/STM32F30x_decoder.o
                0x000000000801884c                RTC_BKP31R_fields
 .rodata.RTC_BKP3R_fields
                0x0000000008018854        0x8 build/decoder/STM32F30x_decoder.o
                0x0000000008018854                RTC_BKP3R_fields
 .rodata.RTC_BKP4R_fields
                0x000000000801885c        0x8 build/decoder/STM32F30x_decoder.o
                0x000000000801885c                RTC_BKP4R_fields
 .rodata.RTC_BKP5R_fields
                0x0000000008018864        0x8 build/decoder/STM32F30x_decoder.o
                0x0000000008018864                RTC_BKP5R_fields
 .rodata.RTC_BKP6R_fields
                0x000000000801886c        0x8 build/decoder/STM32F30x_decoder.o
                0x000000000801886c                RTC_BKP6R_fields
 .rodata.RTC_BKP7R_fields
                0x0000000008018874        0x8 build/decoder/STM32F30x_decoder.o
                0x0000000008018874                RTC_BKP7R_fields
 .rodata.RTC_BKP8R_fields
                0x000000000801887c        0x8 build/decoder/STM32F30x_decoder.o
                0x000000000801887c                RTC_BKP8R_fields
 .rodata.RTC_BKP9R_fields
                0x0000000008018884        0x8 build/decoder/STM32F30x_decoder.o
                0x0000000008018884                RTC_BKP9R_fields
 .rodata.RTC_CALR_fields
                0x000000000801888c       0x20 build/decoder/STM32F30x_decoder.o
                0x000000000801888c                RTC_CALR_fields
 .rodata.RTC_CR_fields
                0x00000000080188ac       0xa0 build/decoder/STM32F30x_decoder.o
                0x00000000080188ac                RTC_CR_fields
 .rodata.RTC_DR_fields
                0x000000000801894c       0x38 build/decoder/STM32F30x_decoder.o
                0x000000000801894c                RTC_DR_fields
 .rodata.RTC_ISR_fields
                0x0000000008018984       0x88 build/decoder/STM32F30x_decoder.o
                0x0000000008018984                RTC_ISR_fields
 .rodata.RTC_PRER_fields
                0x0000000008018a0c       0x10 build/decoder/STM32F30x_decoder.o
                0x0000000008018a0c                RTC_PRER_fields
 .rodata.RTC_SHIFTR_fields
                0x0000000008018a1c       0x10 build/decoder/STM32F30x_decoder.o
                0x0000000008018a1c                RTC_SHIFTR_fields
 .rodata.RTC_SSR_fields
                0x0000000008018a2c        0x8 build/decoder/STM32F30x_decoder.o
                0x0000000008018a2c                RTC_SSR_fields
 .rodata.RTC_TAFCR_fields
                0x0000000008018a34       0x90 build/decoder/STM32F30x_decoder.o
                0x0000000008018a34                RTC_TAFCR_fields
 .rodata.RTC_TR_fields
                0x0000000008018ac4       0x38 build/decoder/STM32F30x_decoder.o
                0x0000000008018ac4                RTC_TR_fields
 .rodata.RTC_TSDR_fields
                0x0000000008018afc       0x28 build/decoder/STM32F30x_decoder.o
                0x0000000008018afc                RTC_TSDR_fields
 .rodata.RTC_TSSSR_fields
                0x0000000008018b24        0x8 build/decoder/STM32F30x_decoder.o
                0x0000000008018b24                RTC_TSSSR_fields
 .rodata.RTC_TSTR_fields
                0x0000000008018b2c       0x38 build/decoder/STM32F30x_decoder.o
                0x0000000008018b2c                RTC_TSTR_fields
 .rodata.RTC_WPR_fields
                0x0000000008018b64        0x8 build/decoder/STM32F30x_decoder.o
                0x0000000008018b64                RTC_WPR_fields
 .rodata.RTC_WUTR_fields
                0x0000000008018b6c        0x8 build/decoder/STM32F30x_decoder.o
                0x0000000008018b6c                RTC_WUTR_fields
 .rodata.RTC_registers
                0x0000000008018b74      0x320 build/decoder/STM32F30x_decoder.o
                0x0000000008018b74                RTC_registers
 .rodata.SPI1_CR1_fields
                0x0000000008018e94       0x70 build/decoder/STM32F30x_decoder.o
                0x0000000008018e94                SPI1_CR1_fields
 .rodata.SPI1_CR2_fields
                0x0000000008018f04       0x60 build/decoder/STM32F30x_decoder.o
                0x0000000008018f04                SPI1_CR2_fields
 .rodata.SPI1_CRCPR_fields
                0x0000000008018f64        0x8 build/decoder/STM32F30x_decoder.o
                0x0000000008018f64                SPI1_CRCPR_fields
 .rodata.SPI1_DR_fields
                0x0000000008018f6c        0x8 build/decoder/STM32F30x_decoder.o
                0x0000000008018f6c                SPI1_DR_fields
 .rodata.SPI1_I2SCFGR_fields
                0x0000000008018f74       0x40 build/decoder/STM32F30x_decoder.o
                0x0000000008018f74                SPI1_I2SCFGR_fields
 .rodata.SPI1_I2SPR_fields
                0x0000000008018fb4       0x18 build/decoder/STM32F30x_decoder.o
                0x0000000008018fb4                SPI1_I2SPR_fields
 .rodata.SPI1_RXCRCR_fields
                0x0000000008018fcc        0x8 build/decoder/STM32F30x_decoder.o
                0x0000000008018fcc                SPI1_RXCRCR_fields
 .rodata.SPI1_SR_fields
                0x0000000008018fd4       0x58 build/decoder/STM32F30x_decoder.o
                0x0000000008018fd4                SPI1_SR_fields
 .rodata.SPI1_TXCRCR_fields
                0x000000000801902c        0x8 build/decoder/STM32F30x_decoder.o
                0x000000000801902c                SPI1_TXCRCR_fields
 .rodata.SPI1_registers
                0x0000000008019034       0x90 build/decoder/STM32F30x_decoder.o
                0x0000000008019034                SPI1_registers
 .rodata.SYSCFG_CFGR1_fields
                0x00000000080190c4       0x88 build/decoder/STM32F30x_decoder.o
                0x00000000080190c4                SYSCFG_CFGR1_fields
 .rodata.SYSCFG_CFGR2_fields
                0x000000000801914c       0x28 build/decoder/STM32F30x_decoder.o
                0x000000000801914c                SYSCFG_CFGR2_fields
 .rodata.SYSCFG_EXTICR1_fields
                0x0000000008019174       0x20 build/decoder/STM32F30x_decoder.o
                0x0000000008019174                SYSCFG_EXTICR1_fields
 .rodata.SYSCFG_EXTICR2_fields
                0x0000000008019194       0x20 build/decoder/STM32F30x_decoder.o
                0x0000000008019194                SYSCFG_EXTICR2_fields
 .rodata.SYSCFG_EXTICR3_fields
                0x00000000080191b4       0x20 build/decoder/STM32F30x_decoder.o
                0x00000000080191b4                SYSCFG_EXTICR3_fields
 .rodata.SYSCFG_EXTICR4_fields
                0x00000000080191d4       0x20 build/decoder/STM32F30x_decoder.o
                0x00000000080191d4                SYSCFG_EXTICR4_fields
 .rodata.SYSCFG_RCR_fields
                0x00000000080191f4       0x40 build/decoder/STM32F30x_decoder.o
                0x00000000080191f4                SYSCFG_RCR_fields
 .rodata.SYSCFG_registers
                0x0000000008019234       0x70 build/decoder/STM32F30x_decoder.o
                0x0000000008019234                SYSCFG_registers
 .rodata.TIM15_ARR_fields
                0x00000000080192a4        0x8 build/decoder/STM32F30x_decoder.o
                0x00000000080192a4                TIM15_ARR_fields
 .rodata.TIM15_BDTR_fields
                0x00000000080192ac       0x48 build/decoder/STM32F30x_decoder.o
                0x00000000080192ac                TIM15_BDTR_fields
 .rodata.TIM15_CCER_fields
                0x00000000080192f4       0x38 build/decoder/STM32F30x_decoder.o
                0x00000000080192f4                TIM15_CCER_fields
 .rodata.TIM15_CCMR1_Input_fields
                0x000000000801932c       0x30 build/decoder/STM32F30x_decoder.o
                0x000000000801932c                TIM15_CCMR1_Input_fields
 .rodata.TIM15_CCMR1_Output_fields
                0x000000000801935c       0x50 build/decoder/STM32F30x_decoder.o
                0x000000000801935c                TIM15_CCMR1_Output_fields
 .rodata.TIM15_CCR1_fields
                0x00000000080193ac        0x8 build/decoder/STM32F30x_decoder.o
                0x00000000080193ac                TIM15_CCR1_fields
 .rodata.TIM15_CCR2_fields
                0x00000000080193b4        0x8 build/decoder/STM32F30x_decoder.o
                0x00000000080193b4                TIM15_CCR2_fields
 .rodata.TIM15_CNT_fields
                0x00000000080193bc       0x10 build/decoder/STM32F30x_decoder.o
                0x00000000080193bc                TIM15_CNT_fields
 .rodata.TIM15_CR1_fields
                0x00000000080193cc       0x38 build/decoder/STM32F30x_decoder.o
                0x00000000080193cc                TIM15_CR1_fields
 .rodata.TIM15_CR2_fields
                0x0000000008019404       0x40 build/decoder/STM32F30x_decoder.o
                0x0000000008019404                TIM15_CR2_fields
 .rodata.TIM15_DCR_fields
                0x0000000008019444       0x10 build/decoder/STM32F30x_decoder.o
                0x0000000008019444                TIM15_DCR_fields
 .rodata.TIM15_DIER_fields
                0x0000000008019454       0x58 build/decoder/STM32F30x_decoder.o
                0x0000000008019454                TIM15_DIER_fields
 .rodata.TIM15_DMAR_fields
                0x00000000080194ac        0x8 build/decoder/STM32F30x_decoder.o
                0x00000000080194ac                TIM15_DMAR_fields
 .rodata.TIM15_EGR_fields
                0x00000000080194b4       0x30 build/decoder/STM32F30x_decoder.o
                0x00000000080194b4                TIM15_EGR_fields
 .rodata.TIM15_PSC_fields
                0x00000000080194e4        0x8 build/decoder/STM32F30x_decoder.o
                0x00000000080194e4                TIM15_PSC_fields
 .rodata.TIM15_RCR_fields
                0x00000000080194ec        0x8 build/decoder/STM32F30x_decoder.o
                0x00000000080194ec                TIM15_RCR_fields
 .rodata.TIM15_SMCR_fields
                0x00000000080194f4       0x20 build/decoder/STM32F30x_decoder.o
                0x00000000080194f4                TIM15_SMCR_fields
 .rodata.TIM15_SR_fields
                0x0000000008019514       0x40 build/decoder/STM32F30x_decoder.o
                0x0000000008019514                TIM15_SR_fields
 .rodata.TIM15_registers
                0x0000000008019554      0x120 build/decoder/STM32F30x_decoder.o
                0x0000000008019554                TIM15_registers
 .rodata.TIM16_ARR_fields
                0x0000000008019674        0x8 build/decoder/STM32F30x_decoder.o
                0x0000000008019674                TIM16_ARR_fields
 .rodata.TIM16_BDTR_fields
                0x000000000801967c       0x48 build/decoder/STM32F30x_decoder.o
                0x000000000801967c                TIM16_BDTR_fields
 .rodata.TIM16_CCER_fields
                0x00000000080196c4       0x20 build/decoder/STM32F30x_decoder.o
                0x00000000080196c4                TIM16_CCER_fields
 .rodata.TIM16_CCMR1_Input_fields
                0x00000000080196e4       0x18 build/decoder/STM32F30x_decoder.o
                0x00000000080196e4                TIM16_CCMR1_Input_fields
 .rodata.TIM16_CCMR1_Output_fields
                0x00000000080196fc       0x28 build/decoder/STM32F30x_decoder.o
                0x00000000080196fc                TIM16_CCMR1_Output_fields
 .rodata.TIM16_CCR1_fields
                0x0000000008019724        0x8 build/decoder/STM32F30x_decoder.o
                0x0000000008019724                TIM16_CCR1_fields
 .rodata.TIM16_CNT_fields
                0x000000000801972c       0x10 build/decoder/STM32F30x_decoder.o
                0x000000000801972c                TIM16_CNT_fields
 .rodata.TIM16_CR1_fields
                0x000000000801973c       0x38 build/decoder/STM32F30x_decoder.o
                0x000000000801973c                TIM16_CR1_fields
 .rodata.TIM16_CR2_fields
                0x0000000008019774       0x28 build/decoder/STM32F30x_decoder.o
                0x0000000008019774                TIM16_CR2_fields
 .rodata.TIM16_DCR_fields
                0x000000000801979c       0x10 build/decoder/STM32F30x_decoder.o
                0x000000000801979c                TIM16_DCR_fields
 .rodata.TIM16_DIER_fields
                0x00000000080197ac       0x48 build/decoder/STM32F30x_decoder.o
                0x00000000080197ac                TIM16_DIER_fields
 .rodata.TIM16_DMAR_fields
                0x00000000080197f4        0x8 build/decoder/STM32F30x_decoder.o
                0x00000000080197f4                TIM16_DMAR_fields
 .rodata.TIM16_EGR_fields
                0x00000000080197fc       0x28 build/decoder/STM32F30x_decoder.o
                0x00000000080197fc                TIM16_EGR_fields
 .rodata.TIM16_PSC_fields
                0x0000000008019824        0x8 build/decoder/STM32F30x_decoder.o
                0x0000000008019824                TIM16_PSC_fields
 .rodata.TIM16_RCR_fields
                0x000000000801982c        0x8 build/decoder/STM32F30x_decoder.o
                0x000000000801982c                TIM16_RCR_fields
 .rodata.TIM16_SR_fields
                0x0000000008019834       0x30 build/decoder/STM32F30x_decoder.o
                0x0000000008019834                TIM16_SR_fields
 .rodata.TIM16_registers
                0x0000000008019864      0x110 build/decoder/STM32F30x_decoder.o
                0x0000000008019864                TIM16_registers
 .rodata.TIM17_ARR_fields
                0x0000000008019974        0x8 build/decoder/STM32F30x_decoder.o
                0x0000000008019974                TIM17_ARR_fields
 .rodata.TIM17_BDTR_fields
                0x000000000801997c       0x48 build/decoder/STM32F30x_decoder.o
                0x000000000801997c                TIM17_BDTR_fields
 .rodata.TIM17_CCER_fields
                0x00000000080199c4       0x20 build/decoder/STM32F30x_decoder.o
                0x00000000080199c4                TIM17_CCER_fields
 .rodata.TIM17_CCMR1_Input_fields
                0x00000000080199e4       0x18 build/decoder/STM32F30x_decoder.o
                0x00000000080199e4                TIM17_CCMR1_Input_fields
 .rodata.TIM17_CCMR1_Output_fields
                0x00000000080199fc       0x28 build/decoder/STM32F30x_decoder.o
                0x00000000080199fc                TIM17_CCMR1_Output_fields
 .rodata.TIM17_CCR1_fields
                0x0000000008019a24        0x8 build/decoder/STM32F30x_decoder.o
                0x0000000008019a24                TIM17_CCR1_fields
 .rodata.TIM17_CNT_fields
                0x0000000008019a2c       0x10 build/decoder/STM32F30x_decoder.o
                0x0000000008019a2c                TIM17_CNT_fields
 .rodata.TIM17_CR1_fields
                0x0000000008019a3c       0x38 build/decoder/STM32F30x_decoder.o
                0x0000000008019a3c                TIM17_CR1_fields
 .rodata.TIM17_CR2_fields
                0x0000000008019a74       0x28 build/decoder/STM32F30x_decoder.o
                0x0000000008019a74                TIM17_CR2_fields
 .rodata.TIM17_DCR_fields
                0x0000000008019a9c       0x10 build/decoder/STM32F30x_decoder.o
                0x0000000008019a9c                TIM17_DCR_fields
 .rodata.TIM17_DIER_fields
                0x0000000008019aac       0x48 build/decoder/STM32F30x_decoder.o
                0x0000000008019aac                TIM17_DIER_fields
 .rodata.TIM17_DMAR_fields
                0x0000000008019af4        0x8 build/decoder/STM32F30x_decoder.o
                0x0000000008019af4                TIM17_DMAR_fields
 .rodata.TIM17_EGR_fields
                0x0000000008019afc       0x28 build/decoder/STM32F30x_decoder.o
                0x0000000008019afc                TIM17_EGR_fields
 .rodata.TIM17_PSC_fields
                0x0000000008019b24        0x8 build/decoder/STM32F30x_decoder.o
                0x0000000008019b24                TIM17_PSC_fields
 .rodata.TIM17_RCR_fields
                0x0000000008019b2c        0x8 build/decoder/STM32F30x_decoder.o
                0x0000000008019b2c                TIM17_RCR_fields
 .rodata.TIM17_SR_fields
                0x0000000008019b34       0x30 build/decoder/STM32F30x_decoder.o
                0x0000000008019b34                TIM17_SR_fields
 .rodata.TIM17_registers
                0x0000000008019b64      0x100 build/decoder/STM32F30x_decoder.o
                0x0000000008019b64                TIM17_registers
 .rodata.TIM1_ARR_fields
                0x0000000008019c64        0x8 build/decoder/STM32F30x_decoder.o
                0x0000000008019c64                TIM1_ARR_fields
 .rodata.TIM1_BDTR_fields
                0x0000000008019c6c       0x60 build/decoder/STM32F30x_decoder.o
                0x0000000008019c6c                TIM1_BDTR_fields
 .rodata.TIM1_CCER_fields
                0x0000000008019ccc       0x98 build/decoder/STM32F30x_decoder.o
                0x0000000008019ccc                TIM1_CCER_fields
 .rodata.TIM1_CCMR1_Input_fields
                0x0000000008019d64       0x30 build/decoder/STM32F30x_decoder.o
                0x0000000008019d64                TIM1_CCMR1_Input_fields
 .rodata.TIM1_CCMR1_Output_fields
                0x0000000008019d94       0x60 build/decoder/STM32F30x_decoder.o
                0x0000000008019d94                TIM1_CCMR1_Output_fields
 .rodata.TIM1_CCMR2_Input_fields
                0x0000000008019df4       0x30 build/decoder/STM32F30x_decoder.o
                0x0000000008019df4                TIM1_CCMR2_Input_fields
 .rodata.TIM1_CCMR2_Output_fields
                0x0000000008019e24       0x60 build/decoder/STM32F30x_decoder.o
                0x0000000008019e24                TIM1_CCMR2_Output_fields
 .rodata.TIM1_CCMR3_Output_fields
                0x0000000008019e84       0x50 build/decoder/STM32F30x_decoder.o
                0x0000000008019e84                TIM1_CCMR3_Output_fields
 .rodata.TIM1_CCR1_fields
                0x0000000008019ed4        0x8 build/decoder/STM32F30x_decoder.o
                0x0000000008019ed4                TIM1_CCR1_fields
 .rodata.TIM1_CCR2_fields
                0x0000000008019edc        0x8 build/decoder/STM32F30x_decoder.o
                0x0000000008019edc                TIM1_CCR2_fields
 .rodata.TIM1_CCR3_fields
                0x0000000008019ee4        0x8 build/decoder/STM32F30x_decoder.o
                0x0000000008019ee4                TIM1_CCR3_fields
 .rodata.TIM1_CCR4_fields
                0x0000000008019eec        0x8 build/decoder/STM32F30x_decoder.o
                0x0000000008019eec                TIM1_CCR4_fields
 .rodata.TIM1_CCR5_fields
                0x0000000008019ef4       0x20 build/decoder/STM32F30x_decoder.o
                0x0000000008019ef4                TIM1_CCR5_fields
 .rodata.TIM1_CCR6_fields
                0x0000000008019f14        0x8 build/decoder/STM32F30x_decoder.o
                0x0000000008019f14                TIM1_CCR6_fields
 .rodata.TIM1_CNT_fields
                0x0000000008019f1c       0x10 build/decoder/STM32F30x_decoder.o
                0x0000000008019f1c                TIM1_CNT_fields
 .rodata.TIM1_CR1_fields
                0x0000000008019f2c       0x48 build/decoder/STM32F30x_decoder.o
                0x0000000008019f2c                TIM1_CR1_fields
 .rodata.TIM1_CR2_fields
                0x0000000008019f74       0x78 build/decoder/STM32F30x_decoder.o
                0x0000000008019f74                TIM1_CR2_fields
 .rodata.TIM1_DCR_fields
                0x0000000008019fec       0x10 build/decoder/STM32F30x_decoder.o
                0x0000000008019fec                TIM1_DCR_fields
 .rodata.TIM1_DIER_fields
                0x0000000008019ffc       0x78 build/decoder/STM32F30x_decoder.o
                0x0000000008019ffc                TIM1_DIER_fields
 .rodata.TIM1_DMAR_fields
                0x000000000801a074        0x8 build/decoder/STM32F30x_decoder.o
                0x000000000801a074                TIM1_DMAR_fields
 .rodata.TIM1_EGR_fields
                0x000000000801a07c       0x48 build/decoder/STM32F30x_decoder.o
                0x000000000801a07c                TIM1_EGR_fields
 .rodata.TIM1_OR_fields
                0x000000000801a0c4       0x10 build/decoder/STM32F30x_decoder.o
                0x000000000801a0c4                TIM1_OR_fields
 .rodata.TIM1_PSC_fields
                0x000000000801a0d4        0x8 build/decoder/STM32F30x_decoder.o
                0x000000000801a0d4                TIM1_PSC_fields
 .rodata.TIM1_RCR_fields
                0x000000000801a0dc        0x8 build/decoder/STM32F30x_decoder.o
                0x000000000801a0dc                TIM1_RCR_fields
 .rodata.TIM1_SMCR_fields
                0x000000000801a0e4       0x48 build/decoder/STM32F30x_decoder.o
                0x000000000801a0e4                TIM1_SMCR_fields
 .rodata.TIM1_SR_fields
                0x000000000801a12c       0x78 build/decoder/STM32F30x_decoder.o
                0x000000000801a12c                TIM1_SR_fields
 .rodata.TIM1_registers
                0x000000000801a1a4      0x1a0 build/decoder/STM32F30x_decoder.o
                0x000000000801a1a4                TIM1_registers
 .rodata.TIM2_ARR_fields
                0x000000000801a344       0x10 build/decoder/STM32F30x_decoder.o
                0x000000000801a344                TIM2_ARR_fields
 .rodata.TIM2_CCER_fields
                0x000000000801a354       0x60 build/decoder/STM32F30x_decoder.o
                0x000000000801a354                TIM2_CCER_fields
 .rodata.TIM2_CCMR1_Input_fields
                0x000000000801a3b4       0x30 build/decoder/STM32F30x_decoder.o
                0x000000000801a3b4                TIM2_CCMR1_Input_fields
 .rodata.TIM2_CCMR1_Output_fields
                0x000000000801a3e4       0x60 build/decoder/STM32F30x_decoder.o
                0x000000000801a3e4                TIM2_CCMR1_Output_fields
 .rodata.TIM2_CCMR2_Input_fields
                0x000000000801a444       0x30 build/decoder/STM32F30x_decoder.o
                0x000000000801a444                TIM2_CCMR2_Input_fields
 .rodata.TIM2_CCMR2_Output_fields
                0x000000000801a474       0x60 build/decoder/STM32F30x_decoder.o
                0x000000000801a474                TIM2_CCMR2_Output_fields
 .rodata.TIM2_CCR1_fields
                0x000000000801a4d4       0x10 build/decoder/STM32F30x_decoder.o
                0x000000000801a4d4                TIM2_CCR1_fields
 .rodata.TIM2_CCR2_fields
                0x000000000801a4e4       0x10 build/decoder/STM32F30x_decoder.o
                0x000000000801a4e4                TIM2_CCR2_fields
 .rodata.TIM2_CCR3_fields
                0x000000000801a4f4       0x10 build/decoder/STM32F30x_decoder.o
                0x000000000801a4f4                TIM2_CCR3_fields
 .rodata.TIM2_CCR4_fields
                0x000000000801a504       0x10 build/decoder/STM32F30x_decoder.o
                0x000000000801a504                TIM2_CCR4_fields
 .rodata.TIM2_CNT_fields
                0x000000000801a514       0x18 build/decoder/STM32F30x_decoder.o
                0x000000000801a514                TIM2_CNT_fields
 .rodata.TIM2_CR1_fields
                0x000000000801a52c       0x48 build/decoder/STM32F30x_decoder.o
                0x000000000801a52c                TIM2_CR1_fields
 .rodata.TIM2_CR2_fields
                0x000000000801a574       0x18 build/decoder/STM32F30x_decoder.o
                0x000000000801a574                TIM2_CR2_fields
 .rodata.TIM2_DCR_fields
                0x000000000801a58c       0x10 build/decoder/STM32F30x_decoder.o
                0x000000000801a58c                TIM2_DCR_fields
 .rodata.TIM2_DIER_fields
                0x000000000801a59c       0x60 build/decoder/STM32F30x_decoder.o
                0x000000000801a59c                TIM2_DIER_fields
 .rodata.TIM2_DMAR_fields
                0x000000000801a5fc        0x8 build/decoder/STM32F30x_decoder.o
                0x000000000801a5fc                TIM2_DMAR_fields
 .rodata.TIM2_EGR_fields
                0x000000000801a604       0x30 build/decoder/STM32F30x_decoder.o
                0x000000000801a604                TIM2_EGR_fields
 .rodata.TIM2_PSC_fields
                0x000000000801a634        0x8 build/decoder/STM32F30x_decoder.o
                0x000000000801a634                TIM2_PSC_fields
 .rodata.TIM2_SMCR_fields
                0x000000000801a63c       0x48 build/decoder/STM32F30x_decoder.o
                0x000000000801a63c                TIM2_SMCR_fields
 .rodata.TIM2_SR_fields
                0x000000000801a684       0x50 build/decoder/STM32F30x_decoder.o
                0x000000000801a684                TIM2_SR_fields
 .rodata.TIM2_registers
                0x000000000801a6d4      0x140 build/decoder/STM32F30x_decoder.o
                0x000000000801a6d4                TIM2_registers
 .rodata.TIM6_ARR_fields
                0x000000000801a814        0x8 build/decoder/STM32F30x_decoder.o
                0x000000000801a814                TIM6_ARR_fields
 .rodata.TIM6_CNT_fields
                0x000000000801a81c       0x10 build/decoder/STM32F30x_decoder.o
                0x000000000801a81c                TIM6_CNT_fields
 .rodata.TIM6_CR1_fields
                0x000000000801a82c       0x30 build/decoder/STM32F30x_decoder.o
                0x000000000801a82c                TIM6_CR1_fields
 .rodata.TIM6_CR2_fields
                0x000000000801a85c        0x8 build/decoder/STM32F30x_decoder.o
                0x000000000801a85c                TIM6_CR2_fields
 .rodata.TIM6_DIER_fields
                0x000000000801a864       0x10 build/decoder/STM32F30x_decoder.o
                0x000000000801a864                TIM6_DIER_fields
 .rodata.TIM6_EGR_fields
                0x000000000801a874        0x8 build/decoder/STM32F30x_decoder.o
                0x000000000801a874                TIM6_EGR_fields
 .rodata.TIM6_PSC_fields
                0x000000000801a87c        0x8 build/decoder/STM32F30x_decoder.o
                0x000000000801a87c                TIM6_PSC_fields
 .rodata.TIM6_SR_fields
                0x000000000801a884        0x8 build/decoder/STM32F30x_decoder.o
                0x000000000801a884                TIM6_SR_fields
 .rodata.TIM6_registers
                0x000000000801a88c       0x80 build/decoder/STM32F30x_decoder.o
                0x000000000801a88c                TIM6_registers
 .rodata.TIM8_ARR_fields
                0x000000000801a90c        0x8 build/decoder/STM32F30x_decoder.o
                0x000000000801a90c                TIM8_ARR_fields
 .rodata.TIM8_BDTR_fields
                0x000000000801a914       0x60 build/decoder/STM32F30x_decoder.o
                0x000000000801a914                TIM8_BDTR_fields
 .rodata.TIM8_CCER_fields
                0x000000000801a974       0x98 build/decoder/STM32F30x_decoder.o
                0x000000000801a974                TIM8_CCER_fields
 .rodata.TIM8_CCMR1_Input_fields
                0x000000000801aa0c       0x30 build/decoder/STM32F30x_decoder.o
                0x000000000801aa0c                TIM8_CCMR1_Input_fields
 .rodata.TIM8_CCMR1_Output_fields
                0x000000000801aa3c       0x60 build/decoder/STM32F30x_decoder.o
                0x000000000801aa3c                TIM8_CCMR1_Output_fields
 .rodata.TIM8_CCMR2_Input_fields
                0x000000000801aa9c       0x30 build/decoder/STM32F30x_decoder.o
                0x000000000801aa9c                TIM8_CCMR2_Input_fields
 .rodata.TIM8_CCMR2_Output_fields
                0x000000000801aacc       0x60 build/decoder/STM32F30x_decoder.o
                0x000000000801aacc                TIM8_CCMR2_Output_fields
 .rodata.TIM8_CCMR3_Output_fields
                0x000000000801ab2c       0x50 build/decoder/STM32F30x_decoder.o
                0x000000000801ab2c                TIM8_CCMR3_Output_fields
 .rodata.TIM8_CCR1_fields
                0x000000000801ab7c        0x8 build/decoder/STM32F30x_decoder.o
                0x000000000801ab7c                TIM8_CCR1_fields
 .rodata.TIM8_CCR2_fields
                0x000000000801ab84        0x8 build/decoder/STM32F30x_decoder.o
                0x000000000801ab84                TIM8_CCR2_fields
 .rodata.TIM8_CCR3_fields
                0x000000000801ab8c        0x8 build/decoder/STM32F30x_decoder.o
                0x000000000801ab8c                TIM8_CCR3_fields
 .rodata.TIM8_CCR4_fields
                0x000000000801ab94        0x8 build/decoder/STM32F30x_decoder.o
                0x000000000801ab94                TIM8_CCR4_fields
 .rodata.TIM8_CCR5_fields
                0x000000000801ab9c       0x20 build/decoder/STM32F30x_decoder.o
                0x000000000801ab9c                TIM8_CCR5_fields
 .rodata.TIM8_CCR6_fields
                0x000000000801abbc        0x8 build/decoder/STM32F30x_decoder.o
                0x000000000801abbc                TIM8_CCR6_fields
 .rodata.TIM8_CNT_fields
                0x000000000801abc4       0x10 build/decoder/STM32F30x_decoder.o
                0x000000000801abc4                TIM8_CNT_fields
 .rodata.TIM8_CR1_fields
                0x000000000801abd4       0x48 build/decoder/STM32F30x_decoder.o
                0x000000000801abd4                TIM8_CR1_fields
 .rodata.TIM8_CR2_fields
                0x000000000801ac1c       0x78 build/decoder/STM32F30x_decoder.o
                0x000000000801ac1c                TIM8_CR2_fields
 .rodata.TIM8_DCR_fields
                0x000000000801ac94       0x10 build/decoder/STM32F30x_decoder.o
                0x000000000801ac94                TIM8_DCR_fields
 .rodata.TIM8_DIER_fields
                0x000000000801aca4       0x78 build/decoder/STM32F30x_decoder.o
                0x000000000801aca4                TIM8_DIER_fields
 .rodata.TIM8_DMAR_fields
                0x000000000801ad1c        0x8 build/decoder/STM32F30x_decoder.o
                0x000000000801ad1c                TIM8_DMAR_fields
 .rodata.TIM8_EGR_fields
                0x000000000801ad24       0x48 build/decoder/STM32F30x_decoder.o
                0x000000000801ad24                TIM8_EGR_fields
 .rodata.TIM8_OR_fields
                0x000000000801ad6c       0x10 build/decoder/STM32F30x_decoder.o
                0x000000000801ad6c                TIM8_OR_fields
 .rodata.TIM8_PSC_fields
                0x000000000801ad7c        0x8 build/decoder/STM32F30x_decoder.o
                0x000000000801ad7c                TIM8_PSC_fields
 .rodata.TIM8_RCR_fields
                0x000000000801ad84        0x8 build/decoder/STM32F30x_decoder.o
                0x000000000801ad84                TIM8_RCR_fields
 .rodata.TIM8_SMCR_fields
                0x000000000801ad8c       0x48 build/decoder/STM32F30x_decoder.o
                0x000000000801ad8c                TIM8_SMCR_fields
 .rodata.TIM8_SR_fields
                0x000000000801add4       0x78 build/decoder/STM32F30x_decoder.o
                0x000000000801add4                TIM8_SR_fields
 .rodata.TIM8_registers
                0x000000000801ae4c      0x1a0 build/decoder/STM32F30x_decoder.o
                0x000000000801ae4c                TIM8_registers
 .rodata.TSC_CR_fields
                0x000000000801afec       0x60 build/decoder/STM32F30x_decoder.o
                0x000000000801afec                TSC_CR_fields
 .rodata.TSC_ICR_fields
                0x000000000801b04c       0x10 build/decoder/STM32F30x_decoder.o
                0x000000000801b04c                TSC_ICR_fields
 .rodata.TSC_IER_fields
                0x000000000801b05c       0x10 build/decoder/STM32F30x_decoder.o
                0x000000000801b05c                TSC_IER_fields
 .rodata.TSC_IOASCR_fields
                0x000000000801b06c      0x100 build/decoder/STM32F30x_decoder.o
                0x000000000801b06c                TSC_IOASCR_fields
 .rodata.TSC_IOCCR_fields
                0x000000000801b16c      0x100 build/decoder/STM32F30x_decoder.o
                0x000000000801b16c                TSC_IOCCR_fields
 .rodata.TSC_IOG1CR_fields
                0x000000000801b26c        0x8 build/decoder/STM32F30x_decoder.o
                0x000000000801b26c                TSC_IOG1CR_fields
 .rodata.TSC_IOG2CR_fields
                0x000000000801b274        0x8 build/decoder/STM32F30x_decoder.o
                0x000000000801b274                TSC_IOG2CR_fields
 .rodata.TSC_IOG3CR_fields
                0x000000000801b27c        0x8 build/decoder/STM32F30x_decoder.o
                0x000000000801b27c                TSC_IOG3CR_fields
 .rodata.TSC_IOG4CR_fields
                0x000000000801b284        0x8 build/decoder/STM32F30x_decoder.o
                0x000000000801b284                TSC_IOG4CR_fields
 .rodata.TSC_IOG5CR_fields
                0x000000000801b28c        0x8 build/decoder/STM32F30x_decoder.o
                0x000000000801b28c                TSC_IOG5CR_fields
 .rodata.TSC_IOG6CR_fields
                0x000000000801b294        0x8 build/decoder/STM32F30x_decoder.o
                0x000000000801b294                TSC_IOG6CR_fields
 .rodata.TSC_IOG7CR_fields
                0x000000000801b29c        0x8 build/decoder/STM32F30x_decoder.o
                0x000000000801b29c                TSC_IOG7CR_fields
 .rodata.TSC_IOG8CR_fields
                0x000000000801b2a4        0x8 build/decoder/STM32F30x_decoder.o
                0x000000000801b2a4                TSC_IOG8CR_fields
 .rodata.TSC_IOGCSR_fields
                0x000000000801b2ac       0x80 build/decoder/STM32F30x_decoder.o
                0x000000000801b2ac                TSC_IOGCSR_fields
 .rodata.TSC_IOHCR_fields
                0x000000000801b32c      0x100 build/decoder/STM32F30x_decoder.o
                0x000000000801b32c                TSC_IOHCR_fields
 .rodata.TSC_IOSCR_fields
                0x000000000801b42c      0x100 build/decoder/STM32F30x_decoder.o
                0x000000000801b42c                TSC_IOSCR_fields
 .rodata.TSC_ISR_fields
                0x000000000801b52c       0x10 build/decoder/STM32F30x_decoder.o
                0x000000000801b52c                TSC_ISR_fields
 .rodata.TSC_registers
                0x000000000801b53c      0x110 build/decoder/STM32F30x_decoder.o
                0x000000000801b53c                TSC_registers
 .rodata.USART1_BRR_fields
                0x000000000801b64c       0x10 build/decoder/STM32F30x_decoder.o
                0x000000000801b64c                USART1_BRR_fields
 .rodata.USART1_CR1_fields
                0x000000000801b65c       0xa0 build/decoder/STM32F30x_decoder.o
                0x000000000801b65c                USART1_CR1_fields
 .rodata.USART1_CR2_fields
                0x000000000801b6fc       0x98 build/decoder/STM32F30x_decoder.o
                0x000000000801b6fc                USART1_CR2_fields
 .rodata.USART1_CR3_fields
                0x000000000801b794       0x98 build/decoder/STM32F30x_decoder.o
                0x000000000801b794                USART1_CR3_fields
 .rodata.USART1_GTPR_fields
                0x000000000801b82c       0x10 build/decoder/STM32F30x_decoder.o
                0x000000000801b82c                USART1_GTPR_fields
 .rodata.USART1_ICR_fields
                0x000000000801b83c       0x60 build/decoder/STM32F30x_decoder.o
                0x000000000801b83c                USART1_ICR_fields
 .rodata.USART1_ISR_fields
                0x000000000801b89c       0xb0 build/decoder/STM32F30x_decoder.o
                0x000000000801b89c                USART1_ISR_fields
 .rodata.USART1_RDR_fields
                0x000000000801b94c        0x8 build/decoder/STM32F30x_decoder.o
                0x000000000801b94c                USART1_RDR_fields
 .rodata.USART1_RQR_fields
                0x000000000801b954       0x28 build/decoder/STM32F30x_decoder.o
                0x000000000801b954                USART1_RQR_fields
 .rodata.USART1_RTOR_fields
                0x000000000801b97c       0x10 build/decoder/STM32F30x_decoder.o
                0x000000000801b97c                USART1_RTOR_fields
 .rodata.USART1_TDR_fields
                0x000000000801b98c        0x8 build/decoder/STM32F30x_decoder.o
                0x000000000801b98c                USART1_TDR_fields
 .rodata.USART1_registers
                0x000000000801b994       0xb0 build/decoder/STM32F30x_decoder.o
                0x000000000801b994                USART1_registers
 .rodata.USB_FS_BTABLE_fields
                0x000000000801ba44        0x8 build/decoder/STM32F30x_decoder.o
                0x000000000801ba44                USB_FS_BTABLE_fields
 .rodata.USB_FS_DADDR_fields
                0x000000000801ba4c       0x40 build/decoder/STM32F30x_decoder.o
                0x000000000801ba4c                USB_FS_DADDR_fields
 .rodata.USB_FS_FNR_fields
                0x000000000801ba8c       0x28 build/decoder/STM32F30x_decoder.o
                0x000000000801ba8c                USB_FS_FNR_fields
 .rodata.USB_FS_ISTR_fields
                0x000000000801bab4       0x50 build/decoder/STM32F30x_decoder.o
                0x000000000801bab4                USB_FS_ISTR_fields
 .rodata.USB_FS_USB_CNTR_fields
                0x000000000801bb04       0x68 build/decoder/STM32F30x_decoder.o
                0x000000000801bb04                USB_FS_USB_CNTR_fields
 .rodata.USB_FS_USB_EP0R_fields
                0x000000000801bb6c       0x50 build/decoder/STM32F30x_decoder.o
                0x000000000801bb6c                USB_FS_USB_EP0R_fields
 .rodata.USB_FS_USB_EP1R_fields
                0x000000000801bbbc       0x50 build/decoder/STM32F30x_decoder.o
                0x000000000801bbbc                USB_FS_USB_EP1R_fields
 .rodata.USB_FS_USB_EP2R_fields
                0x000000000801bc0c       0x50 build/decoder/STM32F30x_decoder.o
                0x000000000801bc0c                USB_FS_USB_EP2R_fields
 .rodata.USB_FS_USB_EP3R_fields
                0x000000000801bc5c       0x50 build/decoder/STM32F30x_decoder.o
                0x000000000801bc5c                USB_FS_USB_EP3R_fields
 .rodata.USB_FS_USB_EP4R_fields
                0x000000000801bcac       0x50 build/decoder/STM32F30x_decoder.o
                0x000000000801bcac                USB_FS_USB_EP4R_fields
 .rodata.USB_FS_USB_EP5R_fields
                0x000000000801bcfc       0x50 build/decoder/STM32F30x_decoder.o
                0x000000000801bcfc                USB_FS_USB_EP5R_fields
 .rodata.USB_FS_USB_EP6R_fields
                0x000000000801bd4c       0x50 build/decoder/STM32F30x_decoder.o
                0x000000000801bd4c                USB_FS_USB_EP6R_fields
 .rodata.USB_FS_USB_EP7R_fields
                0x000000000801bd9c       0x50 build/decoder/STM32F30x_decoder.o
                0x000000000801bd9c                USB_FS_USB_EP7R_fields
 .rodata.USB_FS_registers
                0x000000000801bdec       0xd0 build/decoder/STM32F30x_decoder.o
                0x000000000801bdec                USB_FS_registers
 .rodata.WWDG_CFR_fields
                0x000000000801bebc       0x18 build/decoder/STM32F30x_decoder.o
                0x000000000801bebc                WWDG_CFR_fields
 .rodata.WWDG_CR_fields
                0x000000000801bed4       0x10 build/decoder/STM32F30x_decoder.o
                0x000000000801bed4                WWDG_CR_fields
 .rodata.WWDG_SR_fields
                0x000000000801bee4        0x8 build/decoder/STM32F30x_decoder.o
                0x000000000801bee4                WWDG_SR_fields
 .rodata.WWDG_registers
                0x000000000801beec       0x30 build/decoder/STM32F30x_decoder.o
                0x000000000801beec                WWDG_registers
 .rodata.APBAHBPrescTable
                0x000000000801bf1c       0x10 build/Drivers/STM32F3xx_HAL_Driver/Src/stm32f3xx_hal_rcc.o
                0x000000000801bf1c                APBAHBPrescTable
 .rodata.PLLMULFactorTable
                0x000000000801bf2c       0x10 build/Drivers/STM32F3xx_HAL_Driver/Src/stm32f3xx_hal_rcc.o
                0x000000000801bf2c                PLLMULFactorTable
 .rodata.PredivFactorTable
                0x000000000801bf3c       0x10 build/Drivers/STM32F3xx_HAL_Driver/Src/stm32f3xx_hal_rcc.o
                0x000000000801bf3c                PredivFactorTable
 .rodata.USBD_VCP_ProductStrDescriptor.str1.1
                0x000000000801bf4c       0x21 build/usbd_desc.o
 .rodata.USBD_VCP_ManufacturerStrDescriptor.str1.1
                0x000000000801bf6d       0x13 build/usbd_desc.o
 .rodata.USBD_VCP_ConfigStrDescriptor.str1.1
                0x000000000801bf80        0xb build/usbd_desc.o
 .rodata.USBD_VCP_InterfaceStrDescriptor.str1.1
                0x000000000801bf8b        0xe build/usbd_desc.o
 .rodata.USBD_LangIDDesc
                0x000000000801bf99        0x4 build/usbd_desc.o
                0x000000000801bf99                USBD_LangIDDesc
 .rodata.hUSBDDeviceDesc
                0x000000000801bf9d       0x12 build/usbd_desc.o
                0x000000000801bf9d                hUSBDDeviceDesc
 *fill*         0x000000000801bfaf        0x1 
 .rodata.LED_PIN
                0x000000000801bfb0       0x10 build/Drivers/BSP/STM32F3-Discovery/stm32f3_discovery.o
                0x000000000801bfb0                LED_PIN
 .rodata.str1.4
                0x000000000801bfc0        0x2 /usr/lib/gcc/arm-none-eabi/10.3.1/../../../arm-none-eabi/lib/thumb/v7e-m+fp/hard/libg.a(lib_a-puts.o)
 *fill*         0x000000000801bfc2        0x2 
 .rodata.str1.4
                0x000000000801bfc4       0x42 /usr/lib/gcc/arm-none-eabi/10.3.1/../../../arm-none-eabi/lib/thumb/v7e-m+fp/hard/libg.a(lib_a-vfprintf.o)
 *fill*         0x000000000801c006        0x2 
 .rodata.str1.4
                0x000000000801c008       0x56 /usr/lib/gcc/arm-none-eabi/10.3.1/../../../arm-none-eabi/lib/thumb/v7e-m+fp/hard/libg.a(lib_a-dtoa.o)
                                         0x5a (size before relaxing)
 *fill*         0x000000000801c05e        0x2 
 .rodata.str1.4
                0x000000000801c060       0x33 /usr/lib/gcc/arm-none-eabi/10.3.1/../../../arm-none-eabi/lib/thumb/v7e-m+fp/hard/libg.a(lib_a-mprec.o)
                                         0x47 (size before relaxing)
 .rodata.str1.4
                0x000000000801c093       0x2f /usr/lib/gcc/arm-none-eabi/10.3.1/../../../arm-none-eabi/lib/thumb/v7e-m+fp/hard/libg.a(lib_a-vfiprintf.o)
 *fill*         0x000000000801c093        0x1 
 .rodata.str1.4
                0x000000000801c094       0x3f /usr/lib/gcc/arm-none-eabi/10.3.1/../../../arm-none-eabi/lib/thumb/v7e-m+fp/hard/libg.a(lib_a-assert.o)
                                         0x43 (size before relaxing)
 *fill*         0x000000000801c0d3        0x1 
 .rodata.str1.4
                0x000000000801c0d4        0xe /usr/lib/gcc/arm-none-eabi/10.3.1/../../../arm-none-eabi/lib/thumb/v7e-m+fp/hard/libg.a(lib_a-locale.o)
                                         0x12 (size before relaxing)
                0x000000000801c0e4                . = ALIGN (0x4)
 *fill*         0x000000000801c0e2        0x2 

.ARM.extab
 *(.ARM.extab* .gnu.linkonce.armextab.*)

.ARM            0x000000000801c0e4        0x8
                0x000000000801c0e4                __exidx_start = .
 *(.ARM.exidx*)
 .ARM.exidx     0x000000000801c0e4        0x8 /usr/lib/gcc/arm-none-eabi/10.3.1/thumb/v7e-m+fp/hard/libgcc.a(_udivmoddi4.o)
                0x000000000801c0ec                __exidx_end = .

.preinit_array  0x000000000801c0ec        0x0
                0x000000000801c0ec                PROVIDE (__preinit_array_start = .)
 *(.preinit_array*)
                0x000000000801c0ec                PROVIDE (__preinit_array_end = .)

.init_array     0x000000000801c0ec        0x8
                0x000000000801c0ec                PROVIDE (__init_array_start = .)
 *(SORT_BY_NAME(.init_array.*))
 .init_array.00000
                0x000000000801c0ec        0x4 /usr/lib/gcc/arm-none-eabi/10.3.1/../../../arm-none-eabi/lib/thumb/v7e-m+fp/hard/libg.a(lib_a-__call_atexit.o)
 *(.init_array*)
 .init_array    0x000000000801c0f0        0x4 /usr/lib/gcc/arm-none-eabi/10.3.1/thumb/v7e-m+fp/hard/crtbegin.o
                0x000000000801c0f4                PROVIDE (__init_array_end = .)

.fini_array     0x000000000801c0f4        0x4
                0x000000000801c0f4                PROVIDE (__fini_array_start = .)
 *(SORT_BY_NAME(.fini_array.*))
 *(.fini_array*)
 .fini_array    0x000000000801c0f4        0x4 /usr/lib/gcc/arm-none-eabi/10.3.1/thumb/v7e-m+fp/hard/crtbegin.o
                0x000000000801c0f8                PROVIDE (__fini_array_end = .)
                0x000000000801c0f8                _sidata = LOADADDR (.data)

.data           0x0000000020000000      0xc4c load address 0x000000000801c0f8
                0x0000000020000000                . = ALIGN (0x4)
                0x0000000020000000                _sdata = .
 *(.data)
 .data          0x0000000020000000        0x4 build/mycode.o
                0x0000000020000000                myTickCount
 *fill*         0x0000000020000004        0x4 
 .data          0x0000000020000008       0x25 build/mes/pt_asm.o
 *fill*         0x000000002000002d        0x3 
 .data          0x0000000020000030      0x430 /usr/lib/gcc/arm-none-eabi/10.3.1/../../../arm-none-eabi/lib/thumb/v7e-m+fp/hard/libg.a(lib_a-impure.o)
                0x0000000020000030                _impure_ptr
 .data          0x0000000020000460      0x410 /usr/lib/gcc/arm-none-eabi/10.3.1/../../../arm-none-eabi/lib/thumb/v7e-m+fp/hard/libg.a(lib_a-mallocr.o)
                0x0000000020000460                __malloc_av_
                0x0000000020000868                __malloc_sbrk_base
                0x000000002000086c                __malloc_trim_threshold
 .data          0x0000000020000870      0x16c /usr/lib/gcc/arm-none-eabi/10.3.1/../../../arm-none-eabi/lib/thumb/v7e-m+fp/hard/libg.a(lib_a-locale.o)
                0x0000000020000870                __global_locale
 *(.data*)
 .data.Commands
                0x00000000200009dc        0x4 build/parser.o
                0x00000000200009dc                Commands
 .data.buf.2    0x00000000200009e0        0x4 build/parser.o
 .data.printPrompt.4
                0x00000000200009e4        0x4 build/parser.o
 .data.count.0  0x00000000200009e8        0x4 build/dump.o
 .data.SystemCoreClock
                0x00000000200009ec        0x4 build/Drivers/CMSIS/Device/ST/STM32F3xx/Source/Templates/system_stm32f3xx.o
                0x00000000200009ec                SystemCoreClock
 .data.USBD_CDC
                0x00000000200009f0       0x38 build/Drivers/STM32_USB_Device_Library/Class/CDC/Src/usbd_cdc.o
                0x00000000200009f0                USBD_CDC
 .data.USBD_CDC_CfgFSDesc
                0x0000000020000a28       0x43 build/Drivers/STM32_USB_Device_Library/Class/CDC/Src/usbd_cdc.o
                0x0000000020000a28                USBD_CDC_CfgFSDesc
 *fill*         0x0000000020000a6b        0x1 
 .data.USBD_CDC_CfgHSDesc
                0x0000000020000a6c       0x43 build/Drivers/STM32_USB_Device_Library/Class/CDC/Src/usbd_cdc.o
                0x0000000020000a6c                USBD_CDC_CfgHSDesc
 *fill*         0x0000000020000aaf        0x1 
 .data.USBD_CDC_DeviceQualifierDesc
                0x0000000020000ab0        0xa build/Drivers/STM32_USB_Device_Library/Class/CDC/Src/usbd_cdc.o
 *fill*         0x0000000020000aba        0x2 
 .data.USBD_CDC_OtherSpeedCfgDesc
                0x0000000020000abc       0x43 build/Drivers/STM32_USB_Device_Library/Class/CDC/Src/usbd_cdc.o
                0x0000000020000abc                USBD_CDC_OtherSpeedCfgDesc
 .data.USBD_StringSerial
                0x0000000020000aff       0x1a build/usbd_desc.o
                0x0000000020000aff                USBD_StringSerial
 *fill*         0x0000000020000b19        0x3 
 .data.VCP_Desc
                0x0000000020000b1c       0x1c build/usbd_desc.o
                0x0000000020000b1c                VCP_Desc
 .data.LineCoding
                0x0000000020000b38        0x8 build/usbd_cdc_interface.o
                0x0000000020000b38                LineCoding
 .data.USBD_CDC_fops
                0x0000000020000b40       0x10 build/usbd_cdc_interface.o
                0x0000000020000b40                USBD_CDC_fops
 .data.BUTTON_PORT
                0x0000000020000b50        0x4 build/Drivers/BSP/STM32F3-Discovery/stm32f3_discovery.o
                0x0000000020000b50                BUTTON_PORT
 .data.I2cxTimeout
                0x0000000020000b54        0x4 build/Drivers/BSP/STM32F3-Discovery/stm32f3_discovery.o
                0x0000000020000b54                I2cxTimeout
 .data.LED_PORT
                0x0000000020000b58       0x20 build/Drivers/BSP/STM32F3-Discovery/stm32f3_discovery.o
                0x0000000020000b58                LED_PORT
 .data.SpixTimeout
                0x0000000020000b78        0x4 build/Drivers/BSP/STM32F3-Discovery/stm32f3_discovery.o
                0x0000000020000b78                SpixTimeout
 .data.Lsm303dlhcDrv
                0x0000000020000b7c       0x34 build/Drivers/BSP/Components/lsm303dlhc/lsm303dlhc.o
                0x0000000020000b7c                Lsm303dlhcDrv
 .data.L3gd20Drv
                0x0000000020000bb0       0x34 build/Drivers/BSP/Components/l3gd20/l3gd20.o
                0x0000000020000bb0                L3gd20Drv
 .data.I3g4250Drv
                0x0000000020000be4       0x34 build/Drivers/BSP/Components/i3g4250d/i3g4250d.o
                0x0000000020000be4                I3g4250Drv
 .data.Lsm303agrDrv
                0x0000000020000c18       0x34 build/Drivers/BSP/Components/lsm303agr/lsm303agr.o
                0x0000000020000c18                Lsm303agrDrv
                0x0000000020000c4c                . = ALIGN (0x4)
                0x0000000020000c4c                _edata = .
                0x000000000801cd44                _siccmram = LOADADDR (.ccmram)

.tm_clone_table
                0x0000000020000c4c        0x0 load address 0x000000000801cd44
 .tm_clone_table
                0x0000000020000c4c        0x0 /usr/lib/gcc/arm-none-eabi/10.3.1/thumb/v7e-m+fp/hard/crtbegin.o
 .tm_clone_table
                0x0000000020000c4c        0x0 /usr/lib/gcc/arm-none-eabi/10.3.1/thumb/v7e-m+fp/hard/crtend.o

.igot.plt       0x0000000020000c4c        0x0 load address 0x000000000801cd44
 .igot.plt      0x0000000020000c4c        0x0 /usr/lib/gcc/arm-none-eabi/10.3.1/thumb/v7e-m+fp/hard/crtbegin.o

.ccmram         0x0000000010000000        0x0 load address 0x000000000801cd44
                0x0000000010000000                . = ALIGN (0x4)
                0x0000000010000000                _sccmram = .
 *(.ccmram)
 *(.ccmram*)
                0x0000000010000000                . = ALIGN (0x4)
                0x0000000010000000                _eccmram = .
                0x0000000010000000                . = ALIGN (0x4)

.bss            0x0000000020000c4c     0x11b4
                0x0000000020000c4c                _sbss = .
                0x0000000020000c4c                __bss_start__ = _sbss
 *(.bss)
 .bss           0x0000000020000c4c       0x1c /usr/lib/gcc/arm-none-eabi/10.3.1/thumb/v7e-m+fp/hard/crtbegin.o
 .bss           0x0000000020000c68       0x34 /usr/lib/gcc/arm-none-eabi/10.3.1/../../../arm-none-eabi/lib/thumb/v7e-m+fp/hard/libg.a(lib_a-mallocr.o)
                0x0000000020000c68                __malloc_top_pad
                0x0000000020000c6c                __malloc_current_mallinfo
                0x0000000020000c94                __malloc_max_sbrked_mem
                0x0000000020000c98                __malloc_max_total_mem
 .bss           0x0000000020000c9c        0x4 /usr/lib/gcc/arm-none-eabi/10.3.1/../../../arm-none-eabi/lib/thumb/v7e-m+fp/hard/libg.a(lib_a-reent.o)
                0x0000000020000c9c                errno
 *(.bss*)
 .bss.count.3   0x0000000020000ca0        0x4 build/parser.o
 .bss.input     0x0000000020000ca4       0x50 build/parser.o
                0x0000000020000ca4                input
 .bss.input_b   0x0000000020000cf4       0x50 build/parser.o
                0x0000000020000cf4                input_b
 .bss.saved.1   0x0000000020000d44        0x4 build/parser.o
 .bss.address.1
                0x0000000020000d48        0x4 build/dump.o
 .bss.heap_end.0
                0x0000000020000d4c        0x4 build/syscall.o
 .bss.TerminalState
                0x0000000020000d50      0x124 build/terminal.o
 .bss.USBDDataIn
                0x0000000020000e74        0x4 build/terminal.o
                0x0000000020000e74                USBDDataIn
 .bss.hUSBDDevice
                0x0000000020000e78      0x224 build/terminal.o
                0x0000000020000e78                hUSBDDevice
 .bss.buf.0     0x000000002000109c       0x14 build/decoder/decoder.o
 .bss.uwTick    0x00000000200010b0        0x4 build/Drivers/STM32F3xx_HAL_Driver/Src/stm32f3xx_hal.o
 .bss.cfgidx.0  0x00000000200010b4        0x1 build/Drivers/STM32_USB_Device_Library/Core/Src/usbd_ctlreq.o
 *fill*         0x00000000200010b5        0x3 
 .bss.hpcd      0x00000000200010b8      0x178 build/usbd_conf.o
                0x00000000200010b8                hpcd
 .bss.mem.0     0x0000000020001230      0x230 build/usbd_conf.o
 .bss.USBD_StrDesc
                0x0000000020001460      0x100 build/usbd_desc.o
                0x0000000020001460                USBD_StrDesc
 .bss.UserRxBuffer
                0x0000000020001560      0x800 build/usbd_cdc_interface.o
                0x0000000020001560                UserRxBuffer
 .bss.I2cHandle
                0x0000000020001d60       0x38 build/Drivers/BSP/STM32F3-Discovery/stm32f3_discovery.o
 .bss.SpiHandle
                0x0000000020001d98       0x60 build/Drivers/BSP/STM32F3-Discovery/stm32f3_discovery.o
 .bss.AccelerometerDrv
                0x0000000020001df8        0x4 build/Drivers/BSP/STM32F3-Discovery/stm32f3_discovery_accelerometer.o
 .bss.GyroscopeDrv
                0x0000000020001dfc        0x4 build/Drivers/BSP/STM32F3-Discovery/stm32f3_discovery_gyroscope.o
 *(COMMON)
                0x0000000020001e00                . = ALIGN (0x4)
                0x0000000020001e00                _ebss = .
                0x0000000020001e00                __bss_end__ = _ebss

._user_heap_stack
                0x0000000020001e00     0x1400
                0x0000000020001e00                . = ALIGN (0x4)
                0x0000000020001e00                PROVIDE (end = .)
                [!provide]                        PROVIDE (_end = .)
                0x0000000020002e00                . = (. + _Min_Heap_Size)
 *fill*         0x0000000020001e00     0x1000 
                0x0000000020003200                . = (. + _Min_Stack_Size)
 *fill*         0x0000000020002e00      0x400 
                0x0000000020003200                . = ALIGN (0x4)

/DISCARD/
 libc.a(*)
 libm.a(*)
 libgcc.a(*)

.ARM.attributes
                0x0000000000000000       0x30
 *(.ARM.attributes)
 .ARM.attributes
                0x0000000000000000       0x1e /usr/lib/gcc/arm-none-eabi/10.3.1/thumb/v7e-m+fp/hard/crti.o
 .ARM.attributes
                0x000000000000001e       0x34 /usr/lib/gcc/arm-none-eabi/10.3.1/thumb/v7e-m+fp/hard/crtbegin.o
 .ARM.attributes
                0x0000000000000052       0x34 build/main.o
 .ARM.attributes
                0x0000000000000086       0x20 build/mycode.o
 .ARM.attributes
                0x00000000000000a6       0x34 build/mytest.o
 .ARM.attributes
                0x00000000000000da       0x34 build/mes/pt_hook.o
 .ARM.attributes
                0x000000000000010e       0x20 build/mes/pt_asm.o
 .ARM.attributes
                0x000000000000012e       0x34 build/monitor.o
 .ARM.attributes
                0x0000000000000162       0x34 build/parser.o
 .ARM.attributes
                0x0000000000000196       0x34 build/dump.o
 .ARM.attributes
                0x00000000000001ca       0x34 build/syscall.o
 .ARM.attributes
                0x00000000000001fe       0x34 build/terminal.o
 .ARM.attributes
                0x0000000000000232       0x34 build/decoder/decoder.o
 .ARM.attributes
                0x0000000000000266       0x39 build/decoder/STM32F30x_decoder.o
 .ARM.attributes
                0x000000000000029f       0x34 build/Drivers/CMSIS/Device/ST/STM32F3xx/Source/Templates/system_stm32f3xx.o
 .ARM.attributes
                0x00000000000002d3       0x34 build/Drivers/STM32F3xx_HAL_Driver/Src/stm32f3xx_hal_rcc.o
 .ARM.attributes
                0x0000000000000307       0x34 build/Drivers/STM32F3xx_HAL_Driver/Src/stm32f3xx_hal.o
 .ARM.attributes
                0x000000000000033b       0x34 build/Drivers/STM32F3xx_HAL_Driver/Src/stm32f3xx_hal_cortex.o
 .ARM.attributes
                0x000000000000036f       0x34 build/Drivers/STM32F3xx_HAL_Driver/Src/stm32f3xx_hal_gpio.o
 .ARM.attributes
                0x00000000000003a3       0x34 build/Drivers/STM32F3xx_HAL_Driver/Src/stm32f3xx_hal_pcd.o
 .ARM.attributes
                0x00000000000003d7       0x34 build/Drivers/STM32F3xx_HAL_Driver/Src/stm32f3xx_hal_pcd_ex.o
 .ARM.attributes
                0x000000000000040b       0x34 build/Drivers/STM32F3xx_HAL_Driver/Src/stm32f3xx_hal_i2c.o
 .ARM.attributes
                0x000000000000043f       0x34 build/Drivers/STM32F3xx_HAL_Driver/Src/stm32f3xx_hal_spi.o
 .ARM.attributes
                0x0000000000000473       0x34 build/Drivers/STM32_USB_Device_Library/Core/Src/usbd_core.o
 .ARM.attributes
                0x00000000000004a7       0x34 build/Drivers/STM32_USB_Device_Library/Core/Src/usbd_ctlreq.o
 .ARM.attributes
                0x00000000000004db       0x34 build/Drivers/STM32_USB_Device_Library/Core/Src/usbd_ioreq.o
 .ARM.attributes
                0x000000000000050f       0x34 build/Drivers/STM32_USB_Device_Library/Class/CDC/Src/usbd_cdc.o
 .ARM.attributes
                0x0000000000000543       0x34 build/usbd_conf.o
 .ARM.attributes
                0x0000000000000577       0x34 build/usbd_desc.o
 .ARM.attributes
                0x00000000000005ab       0x34 build/usbd_cdc_interface.o
 .ARM.attributes
                0x00000000000005df       0x34 build/Drivers/BSP/STM32F3-Discovery/stm32f3_discovery.o
 .ARM.attributes
                0x0000000000000613       0x34 build/Drivers/BSP/STM32F3-Discovery/stm32f3_discovery_accelerometer.o
 .ARM.attributes
                0x0000000000000647       0x34 build/Drivers/BSP/STM32F3-Discovery/stm32f3_discovery_gyroscope.o
 .ARM.attributes
                0x000000000000067b       0x34 build/Drivers/BSP/Components/lsm303dlhc/lsm303dlhc.o
 .ARM.attributes
                0x00000000000006af       0x34 build/Drivers/BSP/Components/l3gd20/l3gd20.o
 .ARM.attributes
                0x00000000000006e3       0x34 build/Drivers/BSP/Components/i3g4250d/i3g4250d.o
 .ARM.attributes
                0x0000000000000717       0x34 build/Drivers/BSP/Components/lsm303agr/lsm303agr.o
 .ARM.attributes
                0x000000000000074b       0x21 build/Drivers/CMSIS/Device/ST/STM32F3xx/Source/Templates/gcc/startup_stm32f303xc.o
 .ARM.attributes
                0x000000000000076c       0x34 /usr/lib/gcc/arm-none-eabi/10.3.1/../../../arm-none-eabi/lib/thumb/v7e-m+fp/hard/libg.a(lib_a-atexit.o)
 .ARM.attributes
                0x00000000000007a0       0x32 /usr/lib/gcc/arm-none-eabi/10.3.1/../../../arm-none-eabi/lib/thumb/v7e-m+fp/hard/libg.a(lib_a-ctype_.o)
 .ARM.attributes
                0x00000000000007d2       0x34 /usr/lib/gcc/arm-none-eabi/10.3.1/../../../arm-none-eabi/lib/thumb/v7e-m+fp/hard/libg.a(lib_a-errno.o)
 .ARM.attributes
                0x0000000000000806       0x34 /usr/lib/gcc/arm-none-eabi/10.3.1/../../../arm-none-eabi/lib/thumb/v7e-m+fp/hard/libg.a(lib_a-fini.o)
 .ARM.attributes
                0x000000000000083a       0x32 /usr/lib/gcc/arm-none-eabi/10.3.1/../../../arm-none-eabi/lib/thumb/v7e-m+fp/hard/libg.a(lib_a-impure.o)
 .ARM.attributes
                0x000000000000086c       0x34 /usr/lib/gcc/arm-none-eabi/10.3.1/../../../arm-none-eabi/lib/thumb/v7e-m+fp/hard/libg.a(lib_a-init.o)
 .ARM.attributes
                0x00000000000008a0       0x34 /usr/lib/gcc/arm-none-eabi/10.3.1/../../../arm-none-eabi/lib/thumb/v7e-m+fp/hard/libg.a(lib_a-memset.o)
 .ARM.attributes
                0x00000000000008d4       0x34 /usr/lib/gcc/arm-none-eabi/10.3.1/../../../arm-none-eabi/lib/thumb/v7e-m+fp/hard/libg.a(lib_a-printf.o)
 .ARM.attributes
                0x0000000000000908       0x34 /usr/lib/gcc/arm-none-eabi/10.3.1/../../../arm-none-eabi/lib/thumb/v7e-m+fp/hard/libg.a(lib_a-putchar.o)
 .ARM.attributes
                0x000000000000093c       0x34 /usr/lib/gcc/arm-none-eabi/10.3.1/../../../arm-none-eabi/lib/thumb/v7e-m+fp/hard/libg.a(lib_a-puts.o)
 .ARM.attributes
                0x0000000000000970       0x34 /usr/lib/gcc/arm-none-eabi/10.3.1/../../../arm-none-eabi/lib/thumb/v7e-m+fp/hard/libg.a(lib_a-setvbuf.o)
 .ARM.attributes
                0x00000000000009a4       0x34 /usr/lib/gcc/arm-none-eabi/10.3.1/../../../arm-none-eabi/lib/thumb/v7e-m+fp/hard/libg.a(lib_a-strcasecmp.o)
 .ARM.attributes
                0x00000000000009d8       0x34 /usr/lib/gcc/arm-none-eabi/10.3.1/../../../arm-none-eabi/lib/thumb/v7e-m+fp/hard/libg.a(lib_a-strcpy.o)
 .ARM.attributes
                0x0000000000000a0c       0x1c /usr/lib/gcc/arm-none-eabi/10.3.1/../../../arm-none-eabi/lib/thumb/v7e-m+fp/hard/libg.a(lib_a-strlen.o)
 .ARM.attributes
                0x0000000000000a28       0x34 /usr/lib/gcc/arm-none-eabi/10.3.1/../../../arm-none-eabi/lib/thumb/v7e-m+fp/hard/libg.a(lib_a-strtok.o)
 .ARM.attributes
                0x0000000000000a5c       0x34 /usr/lib/gcc/arm-none-eabi/10.3.1/../../../arm-none-eabi/lib/thumb/v7e-m+fp/hard/libg.a(lib_a-strtok_r.o)
 .ARM.attributes
                0x0000000000000a90       0x34 /usr/lib/gcc/arm-none-eabi/10.3.1/../../../arm-none-eabi/lib/thumb/v7e-m+fp/hard/libg.a(lib_a-strtoul.o)
 .ARM.attributes
                0x0000000000000ac4       0x34 /usr/lib/gcc/arm-none-eabi/10.3.1/../../../arm-none-eabi/lib/thumb/v7e-m+fp/hard/libg.a(lib_a-vfprintf.o)
 .ARM.attributes
                0x0000000000000af8       0x34 /usr/lib/gcc/arm-none-eabi/10.3.1/../../../arm-none-eabi/lib/thumb/v7e-m+fp/hard/libg.a(lib_a-wsetup.o)
 .ARM.attributes
                0x0000000000000b2c       0x34 /usr/lib/gcc/arm-none-eabi/10.3.1/../../../arm-none-eabi/lib/thumb/v7e-m+fp/hard/libg.a(lib_a-__atexit.o)
 .ARM.attributes
                0x0000000000000b60       0x34 /usr/lib/gcc/arm-none-eabi/10.3.1/../../../arm-none-eabi/lib/thumb/v7e-m+fp/hard/libg.a(lib_a-__call_atexit.o)
 .ARM.attributes
                0x0000000000000b94       0x34 /usr/lib/gcc/arm-none-eabi/10.3.1/../../../arm-none-eabi/lib/thumb/v7e-m+fp/hard/libg.a(lib_a-dtoa.o)
 .ARM.attributes
                0x0000000000000bc8       0x34 /usr/lib/gcc/arm-none-eabi/10.3.1/../../../arm-none-eabi/lib/thumb/v7e-m+fp/hard/libg.a(lib_a-fflush.o)
 .ARM.attributes
                0x0000000000000bfc       0x34 /usr/lib/gcc/arm-none-eabi/10.3.1/../../../arm-none-eabi/lib/thumb/v7e-m+fp/hard/libg.a(lib_a-findfp.o)
 .ARM.attributes
                0x0000000000000c30       0x34 /usr/lib/gcc/arm-none-eabi/10.3.1/../../../arm-none-eabi/lib/thumb/v7e-m+fp/hard/libg.a(lib_a-freer.o)
 .ARM.attributes
                0x0000000000000c64       0x34 /usr/lib/gcc/arm-none-eabi/10.3.1/../../../arm-none-eabi/lib/thumb/v7e-m+fp/hard/libg.a(lib_a-fvwrite.o)
 .ARM.attributes
                0x0000000000000c98       0x34 /usr/lib/gcc/arm-none-eabi/10.3.1/../../../arm-none-eabi/lib/thumb/v7e-m+fp/hard/libg.a(lib_a-fwalk.o)
 .ARM.attributes
                0x0000000000000ccc       0x34 /usr/lib/gcc/arm-none-eabi/10.3.1/../../../arm-none-eabi/lib/thumb/v7e-m+fp/hard/libg.a(lib_a-localeconv.o)
 .ARM.attributes
                0x0000000000000d00       0x34 /usr/lib/gcc/arm-none-eabi/10.3.1/../../../arm-none-eabi/lib/thumb/v7e-m+fp/hard/libg.a(lib_a-makebuf.o)
 .ARM.attributes
                0x0000000000000d34       0x34 /usr/lib/gcc/arm-none-eabi/10.3.1/../../../arm-none-eabi/lib/thumb/v7e-m+fp/hard/libg.a(lib_a-malloc.o)
 .ARM.attributes
                0x0000000000000d68       0x34 /usr/lib/gcc/arm-none-eabi/10.3.1/../../../arm-none-eabi/lib/thumb/v7e-m+fp/hard/libg.a(lib_a-mallocr.o)
 .ARM.attributes
                0x0000000000000d9c       0x1c /usr/lib/gcc/arm-none-eabi/10.3.1/../../../arm-none-eabi/lib/thumb/v7e-m+fp/hard/libg.a(lib_a-memchr.o)
 .ARM.attributes
                0x0000000000000db8       0x1c /usr/lib/gcc/arm-none-eabi/10.3.1/../../../arm-none-eabi/lib/thumb/v7e-m+fp/hard/libg.a(lib_a-memcpy.o)
 .ARM.attributes
                0x0000000000000dd4       0x34 /usr/lib/gcc/arm-none-eabi/10.3.1/../../../arm-none-eabi/lib/thumb/v7e-m+fp/hard/libg.a(lib_a-memmove.o)
 .ARM.attributes
                0x0000000000000e08       0x34 /usr/lib/gcc/arm-none-eabi/10.3.1/../../../arm-none-eabi/lib/thumb/v7e-m+fp/hard/libg.a(lib_a-mlock.o)
 .ARM.attributes
                0x0000000000000e3c       0x34 /usr/lib/gcc/arm-none-eabi/10.3.1/../../../arm-none-eabi/lib/thumb/v7e-m+fp/hard/libg.a(lib_a-mprec.o)
 .ARM.attributes
                0x0000000000000e70       0x34 /usr/lib/gcc/arm-none-eabi/10.3.1/../../../arm-none-eabi/lib/thumb/v7e-m+fp/hard/libg.a(lib_a-putc.o)
 .ARM.attributes
                0x0000000000000ea4       0x34 /usr/lib/gcc/arm-none-eabi/10.3.1/../../../arm-none-eabi/lib/thumb/v7e-m+fp/hard/libg.a(lib_a-reallocr.o)
 .ARM.attributes
                0x0000000000000ed8       0x34 /usr/lib/gcc/arm-none-eabi/10.3.1/../../../arm-none-eabi/lib/thumb/v7e-m+fp/hard/libg.a(lib_a-stdio.o)
 .ARM.attributes
                0x0000000000000f0c       0x34 /usr/lib/gcc/arm-none-eabi/10.3.1/../../../arm-none-eabi/lib/thumb/v7e-m+fp/hard/libg.a(lib_a-vfiprintf.o)
 .ARM.attributes
                0x0000000000000f40       0x34 /usr/lib/gcc/arm-none-eabi/10.3.1/../../../arm-none-eabi/lib/thumb/v7e-m+fp/hard/libg.a(lib_a-wbuf.o)
 .ARM.attributes
                0x0000000000000f74       0x34 /usr/lib/gcc/arm-none-eabi/10.3.1/../../../arm-none-eabi/lib/thumb/v7e-m+fp/hard/libg.a(lib_a-assert.o)
 .ARM.attributes
                0x0000000000000fa8       0x34 /usr/lib/gcc/arm-none-eabi/10.3.1/../../../arm-none-eabi/lib/thumb/v7e-m+fp/hard/libg.a(lib_a-callocr.o)
 .ARM.attributes
                0x0000000000000fdc       0x34 /usr/lib/gcc/arm-none-eabi/10.3.1/../../../arm-none-eabi/lib/thumb/v7e-m+fp/hard/libg.a(lib_a-fclose.o)
 .ARM.attributes
                0x0000000000001010       0x34 /usr/lib/gcc/arm-none-eabi/10.3.1/../../../arm-none-eabi/lib/thumb/v7e-m+fp/hard/libg.a(lib_a-fiprintf.o)
 .ARM.attributes
                0x0000000000001044       0x34 /usr/lib/gcc/arm-none-eabi/10.3.1/../../../arm-none-eabi/lib/thumb/v7e-m+fp/hard/libg.a(lib_a-fputwc.o)
 .ARM.attributes
                0x0000000000001078       0x34 /usr/lib/gcc/arm-none-eabi/10.3.1/../../../arm-none-eabi/lib/thumb/v7e-m+fp/hard/libg.a(lib_a-locale.o)
 .ARM.attributes
                0x00000000000010ac       0x34 /usr/lib/gcc/arm-none-eabi/10.3.1/../../../arm-none-eabi/lib/thumb/v7e-m+fp/hard/libg.a(lib_a-mbtowc_r.o)
 .ARM.attributes
                0x00000000000010e0       0x1c /usr/lib/gcc/arm-none-eabi/10.3.1/../../../arm-none-eabi/lib/thumb/v7e-m+fp/hard/libg.a(lib_a-strcmp.o)
 .ARM.attributes
                0x00000000000010fc       0x34 /usr/lib/gcc/arm-none-eabi/10.3.1/../../../arm-none-eabi/lib/thumb/v7e-m+fp/hard/libg.a(lib_a-wcrtomb.o)
 .ARM.attributes
                0x0000000000001130       0x34 /usr/lib/gcc/arm-none-eabi/10.3.1/../../../arm-none-eabi/lib/thumb/v7e-m+fp/hard/libg.a(lib_a-wctomb_r.o)
 .ARM.attributes
                0x0000000000001164       0x34 /usr/lib/gcc/arm-none-eabi/10.3.1/../../../arm-none-eabi/lib/thumb/v7e-m+fp/hard/libg.a(lib_a-abort.o)
 .ARM.attributes
                0x0000000000001198       0x34 /usr/lib/gcc/arm-none-eabi/10.3.1/../../../arm-none-eabi/lib/thumb/v7e-m+fp/hard/libg.a(lib_a-signal.o)
 .ARM.attributes
                0x00000000000011cc       0x34 /usr/lib/gcc/arm-none-eabi/10.3.1/../../../arm-none-eabi/lib/thumb/v7e-m+fp/hard/libg.a(lib_a-signalr.o)
 .ARM.attributes
                0x0000000000001200       0x34 /usr/lib/gcc/arm-none-eabi/10.3.1/../../../arm-none-eabi/lib/thumb/v7e-m+fp/hard/libg.a(lib_a-reent.o)
 .ARM.attributes
                0x0000000000001234       0x1e /usr/lib/gcc/arm-none-eabi/10.3.1/thumb/v7e-m+fp/hard/libgcc.a(_arm_addsubdf3.o)
 .ARM.attributes
                0x0000000000001252       0x1e /usr/lib/gcc/arm-none-eabi/10.3.1/thumb/v7e-m+fp/hard/libgcc.a(_arm_muldivdf3.o)
 .ARM.attributes
                0x0000000000001270       0x1e /usr/lib/gcc/arm-none-eabi/10.3.1/thumb/v7e-m+fp/hard/libgcc.a(_arm_cmpdf2.o)
 .ARM.attributes
                0x000000000000128e       0x1e /usr/lib/gcc/arm-none-eabi/10.3.1/thumb/v7e-m+fp/hard/libgcc.a(_arm_unorddf2.o)
 .ARM.attributes
                0x00000000000012ac       0x1e /usr/lib/gcc/arm-none-eabi/10.3.1/thumb/v7e-m+fp/hard/libgcc.a(_arm_fixdfsi.o)
 .ARM.attributes
                0x00000000000012ca       0x1e /usr/lib/gcc/arm-none-eabi/10.3.1/thumb/v7e-m+fp/hard/libgcc.a(_aeabi_uldivmod.o)
 .ARM.attributes
                0x00000000000012e8       0x34 /usr/lib/gcc/arm-none-eabi/10.3.1/thumb/v7e-m+fp/hard/libgcc.a(_udivmoddi4.o)
 .ARM.attributes
                0x000000000000131c       0x1e /usr/lib/gcc/arm-none-eabi/10.3.1/thumb/v7e-m+fp/hard/libgcc.a(_dvmd_tls.o)
 .ARM.attributes
                0x000000000000133a       0x34 /usr/lib/gcc/arm-none-eabi/10.3.1/../../../arm-none-eabi/lib/thumb/v7e-m+fp/hard/libnosys.a(getpid.o)
 .ARM.attributes
                0x000000000000136e       0x34 /usr/lib/gcc/arm-none-eabi/10.3.1/../../../arm-none-eabi/lib/thumb/v7e-m+fp/hard/libnosys.a(kill.o)
 .ARM.attributes
                0x00000000000013a2       0x34 /usr/lib/gcc/arm-none-eabi/10.3.1/../../../arm-none-eabi/lib/thumb/v7e-m+fp/hard/libnosys.a(_exit.o)
 .ARM.attributes
                0x00000000000013d6       0x32 /usr/lib/gcc/arm-none-eabi/10.3.1/thumb/v7e-m+fp/hard/crtend.o
 .ARM.attributes
                0x0000000000001408       0x1e /usr/lib/gcc/arm-none-eabi/10.3.1/thumb/v7e-m+fp/hard/crtn.o

.parsetable     0x000000000801cd44       0x90
                0x000000000801cd44                . = ALIGN (0x4)
                0x000000000801cd44                _parsetable_start = .
 *(SORT_BY_NAME(.parsetable.*))
 .parsetable.accel
                0x000000000801cd44        0xc build/main.o
                0x000000000801cd44                CmdAccelE
 .parsetable.add
                0x000000000801cd50        0xc build/mes/pt_hook.o
                0x000000000801cd50                AddTestE
 .parsetable.button
                0x000000000801cd5c        0xc build/main.o
                0x000000000801cd5c                CmdButtonE
 .parsetable.cmdtest
                0x000000000801cd68        0xc build/mytest.o
                0x000000000801cd68                CmdTestE
 .parsetable.d  0x000000000801cd74        0xc build/dump.o
                0x000000000801cd74                CmdDumpE
 .parsetable.decode
                0x000000000801cd80        0xc build/decoder/decoder.o
                0x000000000801cd80                CmdDecodeE
 .parsetable.gyro
                0x000000000801cd8c        0xc build/main.o
                0x000000000801cd8c                CmdGyroE
 .parsetable.led
                0x000000000801cd98        0xc build/main.o
                0x000000000801cd98                CmdLEDE
 .parsetable.r  0x000000000801cda4        0xc build/monitor.o
                0x000000000801cda4                CmdRE
 .parsetable.termstat
                0x000000000801cdb0        0xc build/terminal.o
                0x000000000801cdb0                CmdStatsE
 .parsetable.w  0x000000000801cdbc        0xc build/monitor.o
                0x000000000801cdbc                CmdWE
                0x000000000801cdc8        0x4 LONG 0x0
                0x000000000801cdcc        0x4 LONG 0x0
                0x000000000801cdd0        0x4 LONG 0x0
                0x000000000801cdd4                _parsetable_end = .
                0x000000000801cdd4                . = ALIGN (0x4)
OUTPUT(simple_monitor.elf elf32-littlearm)
LOAD linker stubs
LOAD /usr/lib/gcc/arm-none-eabi/10.3.1/../../../arm-none-eabi/lib/thumb/v7e-m+fp/hard/libc.a
LOAD /usr/lib/gcc/arm-none-eabi/10.3.1/../../../arm-none-eabi/lib/thumb/v7e-m+fp/hard/libm.a
LOAD /usr/lib/gcc/arm-none-eabi/10.3.1/thumb/v7e-m+fp/hard/libgcc.a

.rel.dyn        0x000000000801cdd4        0x0
 .rel.iplt      0x000000000801cdd4        0x0 /usr/lib/gcc/arm-none-eabi/10.3.1/thumb/v7e-m+fp/hard/crtbegin.o

.comment        0x0000000000000000       0x33
 .comment       0x0000000000000000       0x33 /usr/lib/gcc/arm-none-eabi/10.3.1/thumb/v7e-m+fp/hard/crtbegin.o
                                         0x34 (size before relaxing)
 .comment       0x0000000000000033       0x34 build/main.o
 .comment       0x0000000000000033       0x34 build/mytest.o
 .comment       0x0000000000000033       0x34 build/mes/pt_hook.o
 .comment       0x0000000000000033       0x34 build/monitor.o
 .comment       0x0000000000000033       0x34 build/parser.o
 .comment       0x0000000000000033       0x34 build/dump.o
 .comment       0x0000000000000033       0x34 build/syscall.o
 .comment       0x0000000000000033       0x34 build/terminal.o
 .comment       0x0000000000000033       0x34 build/decoder/decoder.o
 .comment       0x0000000000000033       0x34 build/decoder/STM32F30x_decoder.o
 .comment       0x0000000000000033       0x34 build/Drivers/CMSIS/Device/ST/STM32F3xx/Source/Templates/system_stm32f3xx.o
 .comment       0x0000000000000033       0x34 build/Drivers/STM32F3xx_HAL_Driver/Src/stm32f3xx_hal_rcc.o
 .comment       0x0000000000000033       0x34 build/Drivers/STM32F3xx_HAL_Driver/Src/stm32f3xx_hal.o
 .comment       0x0000000000000033       0x34 build/Drivers/STM32F3xx_HAL_Driver/Src/stm32f3xx_hal_cortex.o
 .comment       0x0000000000000033       0x34 build/Drivers/STM32F3xx_HAL_Driver/Src/stm32f3xx_hal_gpio.o
 .comment       0x0000000000000033       0x34 build/Drivers/STM32F3xx_HAL_Driver/Src/stm32f3xx_hal_pcd.o
 .comment       0x0000000000000033       0x34 build/Drivers/STM32F3xx_HAL_Driver/Src/stm32f3xx_hal_pcd_ex.o
 .comment       0x0000000000000033       0x34 build/Drivers/STM32F3xx_HAL_Driver/Src/stm32f3xx_hal_i2c.o
 .comment       0x0000000000000033       0x34 build/Drivers/STM32F3xx_HAL_Driver/Src/stm32f3xx_hal_spi.o
 .comment       0x0000000000000033       0x34 build/Drivers/STM32_USB_Device_Library/Core/Src/usbd_core.o
 .comment       0x0000000000000033       0x34 build/Drivers/STM32_USB_Device_Library/Core/Src/usbd_ctlreq.o
 .comment       0x0000000000000033       0x34 build/Drivers/STM32_USB_Device_Library/Core/Src/usbd_ioreq.o
 .comment       0x0000000000000033       0x34 build/Drivers/STM32_USB_Device_Library/Class/CDC/Src/usbd_cdc.o
 .comment       0x0000000000000033       0x34 build/usbd_conf.o
 .comment       0x0000000000000033       0x34 build/usbd_desc.o
 .comment       0x0000000000000033       0x34 build/usbd_cdc_interface.o
 .comment       0x0000000000000033       0x34 build/Drivers/BSP/STM32F3-Discovery/stm32f3_discovery.o
 .comment       0x0000000000000033       0x34 build/Drivers/BSP/STM32F3-Discovery/stm32f3_discovery_accelerometer.o
 .comment       0x0000000000000033       0x34 build/Drivers/BSP/STM32F3-Discovery/stm32f3_discovery_gyroscope.o
 .comment       0x0000000000000033       0x34 build/Drivers/BSP/Components/lsm303dlhc/lsm303dlhc.o
 .comment       0x0000000000000033       0x34 build/Drivers/BSP/Components/l3gd20/l3gd20.o
 .comment       0x0000000000000033       0x34 build/Drivers/BSP/Components/i3g4250d/i3g4250d.o
 .comment       0x0000000000000033       0x34 build/Drivers/BSP/Components/lsm303agr/lsm303agr.o
 .comment       0x0000000000000033       0x34 /usr/lib/gcc/arm-none-eabi/10.3.1/../../../arm-none-eabi/lib/thumb/v7e-m+fp/hard/libg.a(lib_a-atexit.o)
 .comment       0x0000000000000033       0x34 /usr/lib/gcc/arm-none-eabi/10.3.1/../../../arm-none-eabi/lib/thumb/v7e-m+fp/hard/libg.a(lib_a-ctype_.o)
 .comment       0x0000000000000033       0x34 /usr/lib/gcc/arm-none-eabi/10.3.1/../../../arm-none-eabi/lib/thumb/v7e-m+fp/hard/libg.a(lib_a-errno.o)
 .comment       0x0000000000000033       0x34 /usr/lib/gcc/arm-none-eabi/10.3.1/../../../arm-none-eabi/lib/thumb/v7e-m+fp/hard/libg.a(lib_a-fini.o)
 .comment       0x0000000000000033       0x34 /usr/lib/gcc/arm-none-eabi/10.3.1/../../../arm-none-eabi/lib/thumb/v7e-m+fp/hard/libg.a(lib_a-impure.o)
 .comment       0x0000000000000033       0x34 /usr/lib/gcc/arm-none-eabi/10.3.1/../../../arm-none-eabi/lib/thumb/v7e-m+fp/hard/libg.a(lib_a-init.o)
 .comment       0x0000000000000033       0x34 /usr/lib/gcc/arm-none-eabi/10.3.1/../../../arm-none-eabi/lib/thumb/v7e-m+fp/hard/libg.a(lib_a-memset.o)
 .comment       0x0000000000000033       0x34 /usr/lib/gcc/arm-none-eabi/10.3.1/../../../arm-none-eabi/lib/thumb/v7e-m+fp/hard/libg.a(lib_a-printf.o)
 .comment       0x0000000000000033       0x34 /usr/lib/gcc/arm-none-eabi/10.3.1/../../../arm-none-eabi/lib/thumb/v7e-m+fp/hard/libg.a(lib_a-putchar.o)
 .comment       0x0000000000000033       0x34 /usr/lib/gcc/arm-none-eabi/10.3.1/../../../arm-none-eabi/lib/thumb/v7e-m+fp/hard/libg.a(lib_a-puts.o)
 .comment       0x0000000000000033       0x34 /usr/lib/gcc/arm-none-eabi/10.3.1/../../../arm-none-eabi/lib/thumb/v7e-m+fp/hard/libg.a(lib_a-setvbuf.o)
 .comment       0x0000000000000033       0x34 /usr/lib/gcc/arm-none-eabi/10.3.1/../../../arm-none-eabi/lib/thumb/v7e-m+fp/hard/libg.a(lib_a-strcasecmp.o)
 .comment       0x0000000000000033       0x34 /usr/lib/gcc/arm-none-eabi/10.3.1/../../../arm-none-eabi/lib/thumb/v7e-m+fp/hard/libg.a(lib_a-strcpy.o)
 .comment       0x0000000000000033       0x34 /usr/lib/gcc/arm-none-eabi/10.3.1/../../../arm-none-eabi/lib/thumb/v7e-m+fp/hard/libg.a(lib_a-strtok.o)
 .comment       0x0000000000000033       0x34 /usr/lib/gcc/arm-none-eabi/10.3.1/../../../arm-none-eabi/lib/thumb/v7e-m+fp/hard/libg.a(lib_a-strtok_r.o)
 .comment       0x0000000000000033       0x34 /usr/lib/gcc/arm-none-eabi/10.3.1/../../../arm-none-eabi/lib/thumb/v7e-m+fp/hard/libg.a(lib_a-strtoul.o)
 .comment       0x0000000000000033       0x34 /usr/lib/gcc/arm-none-eabi/10.3.1/../../../arm-none-eabi/lib/thumb/v7e-m+fp/hard/libg.a(lib_a-vfprintf.o)
 .comment       0x0000000000000033       0x34 /usr/lib/gcc/arm-none-eabi/10.3.1/../../../arm-none-eabi/lib/thumb/v7e-m+fp/hard/libg.a(lib_a-wsetup.o)
 .comment       0x0000000000000033       0x34 /usr/lib/gcc/arm-none-eabi/10.3.1/../../../arm-none-eabi/lib/thumb/v7e-m+fp/hard/libg.a(lib_a-__atexit.o)
 .comment       0x0000000000000033       0x34 /usr/lib/gcc/arm-none-eabi/10.3.1/../../../arm-none-eabi/lib/thumb/v7e-m+fp/hard/libg.a(lib_a-__call_atexit.o)
 .comment       0x0000000000000033       0x34 /usr/lib/gcc/arm-none-eabi/10.3.1/../../../arm-none-eabi/lib/thumb/v7e-m+fp/hard/libg.a(lib_a-dtoa.o)
 .comment       0x0000000000000033       0x34 /usr/lib/gcc/arm-none-eabi/10.3.1/../../../arm-none-eabi/lib/thumb/v7e-m+fp/hard/libg.a(lib_a-fflush.o)
 .comment       0x0000000000000033       0x34 /usr/lib/gcc/arm-none-eabi/10.3.1/../../../arm-none-eabi/lib/thumb/v7e-m+fp/hard/libg.a(lib_a-findfp.o)
 .comment       0x0000000000000033       0x34 /usr/lib/gcc/arm-none-eabi/10.3.1/../../../arm-none-eabi/lib/thumb/v7e-m+fp/hard/libg.a(lib_a-freer.o)
 .comment       0x0000000000000033       0x34 /usr/lib/gcc/arm-none-eabi/10.3.1/../../../arm-none-eabi/lib/thumb/v7e-m+fp/hard/libg.a(lib_a-fvwrite.o)
 .comment       0x0000000000000033       0x34 /usr/lib/gcc/arm-none-eabi/10.3.1/../../../arm-none-eabi/lib/thumb/v7e-m+fp/hard/libg.a(lib_a-fwalk.o)
 .comment       0x0000000000000033       0x34 /usr/lib/gcc/arm-none-eabi/10.3.1/../../../arm-none-eabi/lib/thumb/v7e-m+fp/hard/libg.a(lib_a-localeconv.o)
 .comment       0x0000000000000033       0x34 /usr/lib/gcc/arm-none-eabi/10.3.1/../../../arm-none-eabi/lib/thumb/v7e-m+fp/hard/libg.a(lib_a-makebuf.o)
 .comment       0x0000000000000033       0x34 /usr/lib/gcc/arm-none-eabi/10.3.1/../../../arm-none-eabi/lib/thumb/v7e-m+fp/hard/libg.a(lib_a-malloc.o)
 .comment       0x0000000000000033       0x34 /usr/lib/gcc/arm-none-eabi/10.3.1/../../../arm-none-eabi/lib/thumb/v7e-m+fp/hard/libg.a(lib_a-mallocr.o)
 .comment       0x0000000000000033       0x34 /usr/lib/gcc/arm-none-eabi/10.3.1/../../../arm-none-eabi/lib/thumb/v7e-m+fp/hard/libg.a(lib_a-memmove.o)
 .comment       0x0000000000000033       0x34 /usr/lib/gcc/arm-none-eabi/10.3.1/../../../arm-none-eabi/lib/thumb/v7e-m+fp/hard/libg.a(lib_a-mlock.o)
 .comment       0x0000000000000033       0x34 /usr/lib/gcc/arm-none-eabi/10.3.1/../../../arm-none-eabi/lib/thumb/v7e-m+fp/hard/libg.a(lib_a-mprec.o)
 .comment       0x0000000000000033       0x34 /usr/lib/gcc/arm-none-eabi/10.3.1/../../../arm-none-eabi/lib/thumb/v7e-m+fp/hard/libg.a(lib_a-putc.o)
 .comment       0x0000000000000033       0x34 /usr/lib/gcc/arm-none-eabi/10.3.1/../../../arm-none-eabi/lib/thumb/v7e-m+fp/hard/libg.a(lib_a-reallocr.o)
 .comment       0x0000000000000033       0x34 /usr/lib/gcc/arm-none-eabi/10.3.1/../../../arm-none-eabi/lib/thumb/v7e-m+fp/hard/libg.a(lib_a-stdio.o)
 .comment       0x0000000000000033       0x34 /usr/lib/gcc/arm-none-eabi/10.3.1/../../../arm-none-eabi/lib/thumb/v7e-m+fp/hard/libg.a(lib_a-vfiprintf.o)
 .comment       0x0000000000000033       0x34 /usr/lib/gcc/arm-none-eabi/10.3.1/../../../arm-none-eabi/lib/thumb/v7e-m+fp/hard/libg.a(lib_a-wbuf.o)
 .comment       0x0000000000000033       0x34 /usr/lib/gcc/arm-none-eabi/10.3.1/../../../arm-none-eabi/lib/thumb/v7e-m+fp/hard/libg.a(lib_a-assert.o)
 .comment       0x0000000000000033       0x34 /usr/lib/gcc/arm-none-eabi/10.3.1/../../../arm-none-eabi/lib/thumb/v7e-m+fp/hard/libg.a(lib_a-callocr.o)
 .comment       0x0000000000000033       0x34 /usr/lib/gcc/arm-none-eabi/10.3.1/../../../arm-none-eabi/lib/thumb/v7e-m+fp/hard/libg.a(lib_a-fclose.o)
 .comment       0x0000000000000033       0x34 /usr/lib/gcc/arm-none-eabi/10.3.1/../../../arm-none-eabi/lib/thumb/v7e-m+fp/hard/libg.a(lib_a-fiprintf.o)
 .comment       0x0000000000000033       0x34 /usr/lib/gcc/arm-none-eabi/10.3.1/../../../arm-none-eabi/lib/thumb/v7e-m+fp/hard/libg.a(lib_a-fputwc.o)
 .comment       0x0000000000000033       0x34 /usr/lib/gcc/arm-none-eabi/10.3.1/../../../arm-none-eabi/lib/thumb/v7e-m+fp/hard/libg.a(lib_a-locale.o)
 .comment       0x0000000000000033       0x34 /usr/lib/gcc/arm-none-eabi/10.3.1/../../../arm-none-eabi/lib/thumb/v7e-m+fp/hard/libg.a(lib_a-mbtowc_r.o)
 .comment       0x0000000000000033       0x34 /usr/lib/gcc/arm-none-eabi/10.3.1/../../../arm-none-eabi/lib/thumb/v7e-m+fp/hard/libg.a(lib_a-wcrtomb.o)
 .comment       0x0000000000000033       0x34 /usr/lib/gcc/arm-none-eabi/10.3.1/../../../arm-none-eabi/lib/thumb/v7e-m+fp/hard/libg.a(lib_a-wctomb_r.o)
 .comment       0x0000000000000033       0x34 /usr/lib/gcc/arm-none-eabi/10.3.1/../../../arm-none-eabi/lib/thumb/v7e-m+fp/hard/libg.a(lib_a-abort.o)
 .comment       0x0000000000000033       0x34 /usr/lib/gcc/arm-none-eabi/10.3.1/../../../arm-none-eabi/lib/thumb/v7e-m+fp/hard/libg.a(lib_a-signal.o)
 .comment       0x0000000000000033       0x34 /usr/lib/gcc/arm-none-eabi/10.3.1/../../../arm-none-eabi/lib/thumb/v7e-m+fp/hard/libg.a(lib_a-signalr.o)
 .comment       0x0000000000000033       0x34 /usr/lib/gcc/arm-none-eabi/10.3.1/../../../arm-none-eabi/lib/thumb/v7e-m+fp/hard/libg.a(lib_a-reent.o)
 .comment       0x0000000000000033       0x34 /usr/lib/gcc/arm-none-eabi/10.3.1/thumb/v7e-m+fp/hard/libgcc.a(_udivmoddi4.o)
 .comment       0x0000000000000033       0x34 /usr/lib/gcc/arm-none-eabi/10.3.1/../../../arm-none-eabi/lib/thumb/v7e-m+fp/hard/libnosys.a(getpid.o)
 .comment       0x0000000000000033       0x34 /usr/lib/gcc/arm-none-eabi/10.3.1/../../../arm-none-eabi/lib/thumb/v7e-m+fp/hard/libnosys.a(kill.o)
 .comment       0x0000000000000033       0x34 /usr/lib/gcc/arm-none-eabi/10.3.1/../../../arm-none-eabi/lib/thumb/v7e-m+fp/hard/libnosys.a(_exit.o)
 .comment       0x0000000000000033       0x34 /usr/lib/gcc/arm-none-eabi/10.3.1/thumb/v7e-m+fp/hard/crtend.o

.debug_info     0x0000000000000000    0x3f46d
 .debug_info    0x0000000000000000      0x94a build/main.o
 .debug_info    0x000000000000094a       0x26 build/mycode.o
 .debug_info    0x0000000000000970      0x199 build/mytest.o
 .debug_info    0x0000000000000b09      0x22c build/mes/pt_hook.o
 .debug_info    0x0000000000000d35       0x26 build/mes/pt_asm.o
 .debug_info    0x0000000000000d5b      0x266 build/monitor.o
 .debug_info    0x0000000000000fc1      0x687 build/parser.o
 .debug_info    0x0000000000001648      0x407 build/dump.o
 .debug_info    0x0000000000001a4f      0xc9f build/syscall.o
 .debug_info    0x00000000000026ee     0x1c63 build/terminal.o
 .debug_info    0x0000000000004351      0xe9f build/decoder/decoder.o
 .debug_info    0x00000000000051f0     0x305c build/decoder/STM32F30x_decoder.o
 .debug_info    0x000000000000824c      0x3d5 build/Drivers/CMSIS/Device/ST/STM32F3xx/Source/Templates/system_stm32f3xx.o
 .debug_info    0x0000000000008621     0x25cc build/Drivers/STM32F3xx_HAL_Driver/Src/stm32f3xx_hal_rcc.o
 .debug_info    0x000000000000abed      0x708 build/Drivers/STM32F3xx_HAL_Driver/Src/stm32f3xx_hal.o
 .debug_info    0x000000000000b2f5      0xd9c build/Drivers/STM32F3xx_HAL_Driver/Src/stm32f3xx_hal_cortex.o
 .debug_info    0x000000000000c091      0x6ca build/Drivers/STM32F3xx_HAL_Driver/Src/stm32f3xx_hal_gpio.o
 .debug_info    0x000000000000c75b     0x12ba build/Drivers/STM32F3xx_HAL_Driver/Src/stm32f3xx_hal_pcd.o
 .debug_info    0x000000000000da15      0x6f4 build/Drivers/STM32F3xx_HAL_Driver/Src/stm32f3xx_hal_pcd_ex.o
 .debug_info    0x000000000000e109     0x2746 build/Drivers/STM32F3xx_HAL_Driver/Src/stm32f3xx_hal_i2c.o
 .debug_info    0x000000000001084f     0x1892 build/Drivers/STM32F3xx_HAL_Driver/Src/stm32f3xx_hal_spi.o
 .debug_info    0x00000000000120e1      0xc94 build/Drivers/STM32_USB_Device_Library/Core/Src/usbd_core.o
 .debug_info    0x0000000000012d75      0xcbb build/Drivers/STM32_USB_Device_Library/Core/Src/usbd_ctlreq.o
 .debug_info    0x0000000000013a30      0x7ab build/Drivers/STM32_USB_Device_Library/Core/Src/usbd_ioreq.o
 .debug_info    0x00000000000141db      0xd60 build/Drivers/STM32_USB_Device_Library/Class/CDC/Src/usbd_cdc.o
 .debug_info    0x0000000000014f3b     0x17c4 build/usbd_conf.o
 .debug_info    0x00000000000166ff      0x561 build/usbd_desc.o
 .debug_info    0x0000000000016c60      0xf72 build/usbd_cdc_interface.o
 .debug_info    0x0000000000017bd2     0x1876 build/Drivers/BSP/STM32F3-Discovery/stm32f3_discovery.o
 .debug_info    0x0000000000019448      0x3b2 build/Drivers/BSP/STM32F3-Discovery/stm32f3_discovery_accelerometer.o
 .debug_info    0x00000000000197fa      0x4bf build/Drivers/BSP/STM32F3-Discovery/stm32f3_discovery_gyroscope.o
 .debug_info    0x0000000000019cb9      0xbad build/Drivers/BSP/Components/lsm303dlhc/lsm303dlhc.o
 .debug_info    0x000000000001a866      0x764 build/Drivers/BSP/Components/l3gd20/l3gd20.o
 .debug_info    0x000000000001afca      0x761 build/Drivers/BSP/Components/i3g4250d/i3g4250d.o
 .debug_info    0x000000000001b72b      0xbf3 build/Drivers/BSP/Components/lsm303agr/lsm303agr.o
 .debug_info    0x000000000001c31e       0x22 build/Drivers/CMSIS/Device/ST/STM32F3xx/Source/Templates/gcc/startup_stm32f303xc.o
 .debug_info    0x000000000001c340      0x100 /usr/lib/gcc/arm-none-eabi/10.3.1/../../../arm-none-eabi/lib/thumb/v7e-m+fp/hard/libg.a(lib_a-atexit.o)
 .debug_info    0x000000000001c440       0xb8 /usr/lib/gcc/arm-none-eabi/10.3.1/../../../arm-none-eabi/lib/thumb/v7e-m+fp/hard/libg.a(lib_a-ctype_.o)
 .debug_info    0x000000000001c4f8      0x914 /usr/lib/gcc/arm-none-eabi/10.3.1/../../../arm-none-eabi/lib/thumb/v7e-m+fp/hard/libg.a(lib_a-errno.o)
 .debug_info    0x000000000001ce0c      0x102 /usr/lib/gcc/arm-none-eabi/10.3.1/../../../arm-none-eabi/lib/thumb/v7e-m+fp/hard/libg.a(lib_a-fini.o)
 .debug_info    0x000000000001cf0e      0x92a /usr/lib/gcc/arm-none-eabi/10.3.1/../../../arm-none-eabi/lib/thumb/v7e-m+fp/hard/libg.a(lib_a-impure.o)
 .debug_info    0x000000000001d838      0x11a /usr/lib/gcc/arm-none-eabi/10.3.1/../../../arm-none-eabi/lib/thumb/v7e-m+fp/hard/libg.a(lib_a-init.o)
 .debug_info    0x000000000001d952      0x137 /usr/lib/gcc/arm-none-eabi/10.3.1/../../../arm-none-eabi/lib/thumb/v7e-m+fp/hard/libg.a(lib_a-memset.o)
 .debug_info    0x000000000001da89      0xa31 /usr/lib/gcc/arm-none-eabi/10.3.1/../../../arm-none-eabi/lib/thumb/v7e-m+fp/hard/libg.a(lib_a-printf.o)
 .debug_info    0x000000000001e4ba      0x9b1 /usr/lib/gcc/arm-none-eabi/10.3.1/../../../arm-none-eabi/lib/thumb/v7e-m+fp/hard/libg.a(lib_a-putchar.o)
 .debug_info    0x000000000001ee6b      0xae1 /usr/lib/gcc/arm-none-eabi/10.3.1/../../../arm-none-eabi/lib/thumb/v7e-m+fp/hard/libg.a(lib_a-puts.o)
 .debug_info    0x000000000001f94c      0xade /usr/lib/gcc/arm-none-eabi/10.3.1/../../../arm-none-eabi/lib/thumb/v7e-m+fp/hard/libg.a(lib_a-setvbuf.o)
 .debug_info    0x000000000002042a      0x15d /usr/lib/gcc/arm-none-eabi/10.3.1/../../../arm-none-eabi/lib/thumb/v7e-m+fp/hard/libg.a(lib_a-strcasecmp.o)
 .debug_info    0x0000000000020587       0xc4 /usr/lib/gcc/arm-none-eabi/10.3.1/../../../arm-none-eabi/lib/thumb/v7e-m+fp/hard/libg.a(lib_a-strcpy.o)
 .debug_info    0x000000000002064b       0x26 /usr/lib/gcc/arm-none-eabi/10.3.1/../../../arm-none-eabi/lib/thumb/v7e-m+fp/hard/libg.a(lib_a-strlen.o)
 .debug_info    0x0000000000020671      0x980 /usr/lib/gcc/arm-none-eabi/10.3.1/../../../arm-none-eabi/lib/thumb/v7e-m+fp/hard/libg.a(lib_a-strtok.o)
 .debug_info    0x0000000000020ff1      0x1b1 /usr/lib/gcc/arm-none-eabi/10.3.1/../../../arm-none-eabi/lib/thumb/v7e-m+fp/hard/libg.a(lib_a-strtok_r.o)
 .debug_info    0x00000000000211a2      0xeb3 /usr/lib/gcc/arm-none-eabi/10.3.1/../../../arm-none-eabi/lib/thumb/v7e-m+fp/hard/libg.a(lib_a-strtoul.o)
 .debug_info    0x0000000000022055     0x1b11 /usr/lib/gcc/arm-none-eabi/10.3.1/../../../arm-none-eabi/lib/thumb/v7e-m+fp/hard/libg.a(lib_a-vfprintf.o)
 .debug_info    0x0000000000023b66      0x9c2 /usr/lib/gcc/arm-none-eabi/10.3.1/../../../arm-none-eabi/lib/thumb/v7e-m+fp/hard/libg.a(lib_a-wsetup.o)
 .debug_info    0x0000000000024528      0x9b0 /usr/lib/gcc/arm-none-eabi/10.3.1/../../../arm-none-eabi/lib/thumb/v7e-m+fp/hard/libg.a(lib_a-__atexit.o)
 .debug_info    0x0000000000024ed8      0xa3d /usr/lib/gcc/arm-none-eabi/10.3.1/../../../arm-none-eabi/lib/thumb/v7e-m+fp/hard/libg.a(lib_a-__call_atexit.o)
 .debug_info    0x0000000000025915     0x1a53 /usr/lib/gcc/arm-none-eabi/10.3.1/../../../arm-none-eabi/lib/thumb/v7e-m+fp/hard/libg.a(lib_a-dtoa.o)
 .debug_info    0x0000000000027368      0xbe3 /usr/lib/gcc/arm-none-eabi/10.3.1/../../../arm-none-eabi/lib/thumb/v7e-m+fp/hard/libg.a(lib_a-fflush.o)
 .debug_info    0x0000000000027f4b      0xf66 /usr/lib/gcc/arm-none-eabi/10.3.1/../../../arm-none-eabi/lib/thumb/v7e-m+fp/hard/libg.a(lib_a-findfp.o)
 .debug_info    0x0000000000028eb1      0xd10 /usr/lib/gcc/arm-none-eabi/10.3.1/../../../arm-none-eabi/lib/thumb/v7e-m+fp/hard/libg.a(lib_a-freer.o)
 .debug_info    0x0000000000029bc1      0xcc4 /usr/lib/gcc/arm-none-eabi/10.3.1/../../../arm-none-eabi/lib/thumb/v7e-m+fp/hard/libg.a(lib_a-fvwrite.o)
 .debug_info    0x000000000002a885      0xa66 /usr/lib/gcc/arm-none-eabi/10.3.1/../../../arm-none-eabi/lib/thumb/v7e-m+fp/hard/libg.a(lib_a-fwalk.o)
 .debug_info    0x000000000002b2eb      0xc3e /usr/lib/gcc/arm-none-eabi/10.3.1/../../../arm-none-eabi/lib/thumb/v7e-m+fp/hard/libg.a(lib_a-localeconv.o)
 .debug_info    0x000000000002bf29      0xdf2 /usr/lib/gcc/arm-none-eabi/10.3.1/../../../arm-none-eabi/lib/thumb/v7e-m+fp/hard/libg.a(lib_a-makebuf.o)
 .debug_info    0x000000000002cd1b      0x998 /usr/lib/gcc/arm-none-eabi/10.3.1/../../../arm-none-eabi/lib/thumb/v7e-m+fp/hard/libg.a(lib_a-malloc.o)
 .debug_info    0x000000000002d6b3      0xe95 /usr/lib/gcc/arm-none-eabi/10.3.1/../../../arm-none-eabi/lib/thumb/v7e-m+fp/hard/libg.a(lib_a-mallocr.o)
 .debug_info    0x000000000002e548       0x26 /usr/lib/gcc/arm-none-eabi/10.3.1/../../../arm-none-eabi/lib/thumb/v7e-m+fp/hard/libg.a(lib_a-memchr.o)
 .debug_info    0x000000000002e56e       0x26 /usr/lib/gcc/arm-none-eabi/10.3.1/../../../arm-none-eabi/lib/thumb/v7e-m+fp/hard/libg.a(lib_a-memcpy.o)
 .debug_info    0x000000000002e594      0x152 /usr/lib/gcc/arm-none-eabi/10.3.1/../../../arm-none-eabi/lib/thumb/v7e-m+fp/hard/libg.a(lib_a-memmove.o)
 .debug_info    0x000000000002e6e6      0x942 /usr/lib/gcc/arm-none-eabi/10.3.1/../../../arm-none-eabi/lib/thumb/v7e-m+fp/hard/libg.a(lib_a-mlock.o)
 .debug_info    0x000000000002f028     0x20d2 /usr/lib/gcc/arm-none-eabi/10.3.1/../../../arm-none-eabi/lib/thumb/v7e-m+fp/hard/libg.a(lib_a-mprec.o)
 .debug_info    0x00000000000310fa      0xb1a /usr/lib/gcc/arm-none-eabi/10.3.1/../../../arm-none-eabi/lib/thumb/v7e-m+fp/hard/libg.a(lib_a-putc.o)
 .debug_info    0x0000000000031c14      0xdb4 /usr/lib/gcc/arm-none-eabi/10.3.1/../../../arm-none-eabi/lib/thumb/v7e-m+fp/hard/libg.a(lib_a-reallocr.o)
 .debug_info    0x00000000000329c8      0xc22 /usr/lib/gcc/arm-none-eabi/10.3.1/../../../arm-none-eabi/lib/thumb/v7e-m+fp/hard/libg.a(lib_a-stdio.o)
 .debug_info    0x00000000000335ea     0x1926 /usr/lib/gcc/arm-none-eabi/10.3.1/../../../arm-none-eabi/lib/thumb/v7e-m+fp/hard/libg.a(lib_a-vfiprintf.o)
 .debug_info    0x0000000000034f10      0xa5f /usr/lib/gcc/arm-none-eabi/10.3.1/../../../arm-none-eabi/lib/thumb/v7e-m+fp/hard/libg.a(lib_a-wbuf.o)
 .debug_info    0x000000000003596f      0xa23 /usr/lib/gcc/arm-none-eabi/10.3.1/../../../arm-none-eabi/lib/thumb/v7e-m+fp/hard/libg.a(lib_a-assert.o)
 .debug_info    0x0000000000036392      0xa81 /usr/lib/gcc/arm-none-eabi/10.3.1/../../../arm-none-eabi/lib/thumb/v7e-m+fp/hard/libg.a(lib_a-callocr.o)
 .debug_info    0x0000000000036e13      0xb4a /usr/lib/gcc/arm-none-eabi/10.3.1/../../../arm-none-eabi/lib/thumb/v7e-m+fp/hard/libg.a(lib_a-fclose.o)
 .debug_info    0x000000000003795d      0xa5f /usr/lib/gcc/arm-none-eabi/10.3.1/../../../arm-none-eabi/lib/thumb/v7e-m+fp/hard/libg.a(lib_a-fiprintf.o)
 .debug_info    0x00000000000383bc      0xc12 /usr/lib/gcc/arm-none-eabi/10.3.1/../../../arm-none-eabi/lib/thumb/v7e-m+fp/hard/libg.a(lib_a-fputwc.o)
 .debug_info    0x0000000000038fce      0xe0a /usr/lib/gcc/arm-none-eabi/10.3.1/../../../arm-none-eabi/lib/thumb/v7e-m+fp/hard/libg.a(lib_a-locale.o)
 .debug_info    0x0000000000039dd8      0xccd /usr/lib/gcc/arm-none-eabi/10.3.1/../../../arm-none-eabi/lib/thumb/v7e-m+fp/hard/libg.a(lib_a-mbtowc_r.o)
 .debug_info    0x000000000003aaa5       0x26 /usr/lib/gcc/arm-none-eabi/10.3.1/../../../arm-none-eabi/lib/thumb/v7e-m+fp/hard/libg.a(lib_a-strcmp.o)
 .debug_info    0x000000000003aacb      0xd4f /usr/lib/gcc/arm-none-eabi/10.3.1/../../../arm-none-eabi/lib/thumb/v7e-m+fp/hard/libg.a(lib_a-wcrtomb.o)
 .debug_info    0x000000000003b81a      0xc86 /usr/lib/gcc/arm-none-eabi/10.3.1/../../../arm-none-eabi/lib/thumb/v7e-m+fp/hard/libg.a(lib_a-wctomb_r.o)
 .debug_info    0x000000000003c4a0       0xcb /usr/lib/gcc/arm-none-eabi/10.3.1/../../../arm-none-eabi/lib/thumb/v7e-m+fp/hard/libg.a(lib_a-abort.o)
 .debug_info    0x000000000003c56b      0xf32 /usr/lib/gcc/arm-none-eabi/10.3.1/../../../arm-none-eabi/lib/thumb/v7e-m+fp/hard/libg.a(lib_a-signal.o)
 .debug_info    0x000000000003d49d      0x9d7 /usr/lib/gcc/arm-none-eabi/10.3.1/../../../arm-none-eabi/lib/thumb/v7e-m+fp/hard/libg.a(lib_a-signalr.o)
 .debug_info    0x000000000003de74      0xbda /usr/lib/gcc/arm-none-eabi/10.3.1/../../../arm-none-eabi/lib/thumb/v7e-m+fp/hard/libg.a(lib_a-reent.o)
 .debug_info    0x000000000003ea4e       0x26 /usr/lib/gcc/arm-none-eabi/10.3.1/thumb/v7e-m+fp/hard/libgcc.a(_arm_addsubdf3.o)
 .debug_info    0x000000000003ea74       0x26 /usr/lib/gcc/arm-none-eabi/10.3.1/thumb/v7e-m+fp/hard/libgcc.a(_arm_muldivdf3.o)
 .debug_info    0x000000000003ea9a       0x26 /usr/lib/gcc/arm-none-eabi/10.3.1/thumb/v7e-m+fp/hard/libgcc.a(_arm_cmpdf2.o)
 .debug_info    0x000000000003eac0       0x26 /usr/lib/gcc/arm-none-eabi/10.3.1/thumb/v7e-m+fp/hard/libgcc.a(_arm_unorddf2.o)
 .debug_info    0x000000000003eae6       0x26 /usr/lib/gcc/arm-none-eabi/10.3.1/thumb/v7e-m+fp/hard/libgcc.a(_arm_fixdfsi.o)
 .debug_info    0x000000000003eb0c       0x26 /usr/lib/gcc/arm-none-eabi/10.3.1/thumb/v7e-m+fp/hard/libgcc.a(_aeabi_uldivmod.o)
 .debug_info    0x000000000003eb32      0x717 /usr/lib/gcc/arm-none-eabi/10.3.1/thumb/v7e-m+fp/hard/libgcc.a(_udivmoddi4.o)
 .debug_info    0x000000000003f249       0x26 /usr/lib/gcc/arm-none-eabi/10.3.1/thumb/v7e-m+fp/hard/libgcc.a(_dvmd_tls.o)
 .debug_info    0x000000000003f26f       0x9c /usr/lib/gcc/arm-none-eabi/10.3.1/../../../arm-none-eabi/lib/thumb/v7e-m+fp/hard/libnosys.a(getpid.o)
 .debug_info    0x000000000003f30b       0xbf /usr/lib/gcc/arm-none-eabi/10.3.1/../../../arm-none-eabi/lib/thumb/v7e-m+fp/hard/libnosys.a(kill.o)
 .debug_info    0x000000000003f3ca       0xa3 /usr/lib/gcc/arm-none-eabi/10.3.1/../../../arm-none-eabi/lib/thumb/v7e-m+fp/hard/libnosys.a(_exit.o)

.debug_abbrev   0x0000000000000000     0xc56e
 .debug_abbrev  0x0000000000000000      0x2aa build/main.o
 .debug_abbrev  0x00000000000002aa       0x14 build/mycode.o
 .debug_abbrev  0x00000000000002be      0x12f build/mytest.o
 .debug_abbrev  0x00000000000003ed      0x181 build/mes/pt_hook.o
 .debug_abbrev  0x000000000000056e       0x14 build/mes/pt_asm.o
 .debug_abbrev  0x0000000000000582      0x13a build/monitor.o
 .debug_abbrev  0x00000000000006bc      0x24f build/parser.o
 .debug_abbrev  0x000000000000090b      0x1d7 build/dump.o
 .debug_abbrev  0x0000000000000ae2      0x260 build/syscall.o
 .debug_abbrev  0x0000000000000d42      0x53a build/terminal.o
 .debug_abbrev  0x000000000000127c      0x29c build/decoder/decoder.o
 .debug_abbrev  0x0000000000001518       0xc8 build/decoder/STM32F30x_decoder.o
 .debug_abbrev  0x00000000000015e0      0x12c build/Drivers/CMSIS/Device/ST/STM32F3xx/Source/Templates/system_stm32f3xx.o
 .debug_abbrev  0x000000000000170c      0x326 build/Drivers/STM32F3xx_HAL_Driver/Src/stm32f3xx_hal_rcc.o
 .debug_abbrev  0x0000000000001a32      0x1f2 build/Drivers/STM32F3xx_HAL_Driver/Src/stm32f3xx_hal.o
 .debug_abbrev  0x0000000000001c24      0x314 build/Drivers/STM32F3xx_HAL_Driver/Src/stm32f3xx_hal_cortex.o
 .debug_abbrev  0x0000000000001f38      0x1d5 build/Drivers/STM32F3xx_HAL_Driver/Src/stm32f3xx_hal_gpio.o
 .debug_abbrev  0x000000000000210d      0x3a3 build/Drivers/STM32F3xx_HAL_Driver/Src/stm32f3xx_hal_pcd.o
 .debug_abbrev  0x00000000000024b0      0x196 build/Drivers/STM32F3xx_HAL_Driver/Src/stm32f3xx_hal_pcd_ex.o
 .debug_abbrev  0x0000000000002646      0x2d7 build/Drivers/STM32F3xx_HAL_Driver/Src/stm32f3xx_hal_i2c.o
 .debug_abbrev  0x000000000000291d      0x372 build/Drivers/STM32F3xx_HAL_Driver/Src/stm32f3xx_hal_spi.o
 .debug_abbrev  0x0000000000002c8f      0x2b4 build/Drivers/STM32_USB_Device_Library/Core/Src/usbd_core.o
 .debug_abbrev  0x0000000000002f43      0x360 build/Drivers/STM32_USB_Device_Library/Core/Src/usbd_ctlreq.o
 .debug_abbrev  0x00000000000032a3      0x15d build/Drivers/STM32_USB_Device_Library/Core/Src/usbd_ioreq.o
 .debug_abbrev  0x0000000000003400      0x29b build/Drivers/STM32_USB_Device_Library/Class/CDC/Src/usbd_cdc.o
 .debug_abbrev  0x000000000000369b      0x335 build/usbd_conf.o
 .debug_abbrev  0x00000000000039d0      0x1db build/usbd_desc.o
 .debug_abbrev  0x0000000000003bab      0x239 build/usbd_cdc_interface.o
 .debug_abbrev  0x0000000000003de4      0x398 build/Drivers/BSP/STM32F3-Discovery/stm32f3_discovery.o
 .debug_abbrev  0x000000000000417c      0x184 build/Drivers/BSP/STM32F3-Discovery/stm32f3_discovery_accelerometer.o
 .debug_abbrev  0x0000000000004300      0x1e5 build/Drivers/BSP/STM32F3-Discovery/stm32f3_discovery_gyroscope.o
 .debug_abbrev  0x00000000000044e5      0x205 build/Drivers/BSP/Components/lsm303dlhc/lsm303dlhc.o
 .debug_abbrev  0x00000000000046ea      0x214 build/Drivers/BSP/Components/l3gd20/l3gd20.o
 .debug_abbrev  0x00000000000048fe      0x214 build/Drivers/BSP/Components/i3g4250d/i3g4250d.o
 .debug_abbrev  0x0000000000004b12      0x218 build/Drivers/BSP/Components/lsm303agr/lsm303agr.o
 .debug_abbrev  0x0000000000004d2a       0x12 build/Drivers/CMSIS/Device/ST/STM32F3xx/Source/Templates/gcc/startup_stm32f303xc.o
 .debug_abbrev  0x0000000000004d3c       0xb7 /usr/lib/gcc/arm-none-eabi/10.3.1/../../../arm-none-eabi/lib/thumb/v7e-m+fp/hard/libg.a(lib_a-atexit.o)
 .debug_abbrev  0x0000000000004df3       0x62 /usr/lib/gcc/arm-none-eabi/10.3.1/../../../arm-none-eabi/lib/thumb/v7e-m+fp/hard/libg.a(lib_a-ctype_.o)
 .debug_abbrev  0x0000000000004e55      0x1be /usr/lib/gcc/arm-none-eabi/10.3.1/../../../arm-none-eabi/lib/thumb/v7e-m+fp/hard/libg.a(lib_a-errno.o)
 .debug_abbrev  0x0000000000005013       0xcf /usr/lib/gcc/arm-none-eabi/10.3.1/../../../arm-none-eabi/lib/thumb/v7e-m+fp/hard/libg.a(lib_a-fini.o)
 .debug_abbrev  0x00000000000050e2      0x1b8 /usr/lib/gcc/arm-none-eabi/10.3.1/../../../arm-none-eabi/lib/thumb/v7e-m+fp/hard/libg.a(lib_a-impure.o)
 .debug_abbrev  0x000000000000529a       0xcc /usr/lib/gcc/arm-none-eabi/10.3.1/../../../arm-none-eabi/lib/thumb/v7e-m+fp/hard/libg.a(lib_a-init.o)
 .debug_abbrev  0x0000000000005366       0xb4 /usr/lib/gcc/arm-none-eabi/10.3.1/../../../arm-none-eabi/lib/thumb/v7e-m+fp/hard/libg.a(lib_a-memset.o)
 .debug_abbrev  0x000000000000541a      0x27a /usr/lib/gcc/arm-none-eabi/10.3.1/../../../arm-none-eabi/lib/thumb/v7e-m+fp/hard/libg.a(lib_a-printf.o)
 .debug_abbrev  0x0000000000005694      0x233 /usr/lib/gcc/arm-none-eabi/10.3.1/../../../arm-none-eabi/lib/thumb/v7e-m+fp/hard/libg.a(lib_a-putchar.o)
 .debug_abbrev  0x00000000000058c7      0x28d /usr/lib/gcc/arm-none-eabi/10.3.1/../../../arm-none-eabi/lib/thumb/v7e-m+fp/hard/libg.a(lib_a-puts.o)
 .debug_abbrev  0x0000000000005b54      0x283 /usr/lib/gcc/arm-none-eabi/10.3.1/../../../arm-none-eabi/lib/thumb/v7e-m+fp/hard/libg.a(lib_a-setvbuf.o)
 .debug_abbrev  0x0000000000005dd7       0xb1 /usr/lib/gcc/arm-none-eabi/10.3.1/../../../arm-none-eabi/lib/thumb/v7e-m+fp/hard/libg.a(lib_a-strcasecmp.o)
 .debug_abbrev  0x0000000000005e88       0x7b /usr/lib/gcc/arm-none-eabi/10.3.1/../../../arm-none-eabi/lib/thumb/v7e-m+fp/hard/libg.a(lib_a-strcpy.o)
 .debug_abbrev  0x0000000000005f03       0x14 /usr/lib/gcc/arm-none-eabi/10.3.1/../../../arm-none-eabi/lib/thumb/v7e-m+fp/hard/libg.a(lib_a-strlen.o)
 .debug_abbrev  0x0000000000005f17      0x230 /usr/lib/gcc/arm-none-eabi/10.3.1/../../../arm-none-eabi/lib/thumb/v7e-m+fp/hard/libg.a(lib_a-strtok.o)
 .debug_abbrev  0x0000000000006147      0x112 /usr/lib/gcc/arm-none-eabi/10.3.1/../../../arm-none-eabi/lib/thumb/v7e-m+fp/hard/libg.a(lib_a-strtok_r.o)
 .debug_abbrev  0x0000000000006259      0x2dd /usr/lib/gcc/arm-none-eabi/10.3.1/../../../arm-none-eabi/lib/thumb/v7e-m+fp/hard/libg.a(lib_a-strtoul.o)
 .debug_abbrev  0x0000000000006536      0x44f /usr/lib/gcc/arm-none-eabi/10.3.1/../../../arm-none-eabi/lib/thumb/v7e-m+fp/hard/libg.a(lib_a-vfprintf.o)
 .debug_abbrev  0x0000000000006985      0x246 /usr/lib/gcc/arm-none-eabi/10.3.1/../../../arm-none-eabi/lib/thumb/v7e-m+fp/hard/libg.a(lib_a-wsetup.o)
 .debug_abbrev  0x0000000000006bcb      0x23f /usr/lib/gcc/arm-none-eabi/10.3.1/../../../arm-none-eabi/lib/thumb/v7e-m+fp/hard/libg.a(lib_a-__atexit.o)
 .debug_abbrev  0x0000000000006e0a      0x2b2 /usr/lib/gcc/arm-none-eabi/10.3.1/../../../arm-none-eabi/lib/thumb/v7e-m+fp/hard/libg.a(lib_a-__call_atexit.o)
 .debug_abbrev  0x00000000000070bc      0x323 /usr/lib/gcc/arm-none-eabi/10.3.1/../../../arm-none-eabi/lib/thumb/v7e-m+fp/hard/libg.a(lib_a-dtoa.o)
 .debug_abbrev  0x00000000000073df      0x336 /usr/lib/gcc/arm-none-eabi/10.3.1/../../../arm-none-eabi/lib/thumb/v7e-m+fp/hard/libg.a(lib_a-fflush.o)
 .debug_abbrev  0x0000000000007715      0x41a /usr/lib/gcc/arm-none-eabi/10.3.1/../../../arm-none-eabi/lib/thumb/v7e-m+fp/hard/libg.a(lib_a-findfp.o)
 .debug_abbrev  0x0000000000007b2f      0x2b1 /usr/lib/gcc/arm-none-eabi/10.3.1/../../../arm-none-eabi/lib/thumb/v7e-m+fp/hard/libg.a(lib_a-freer.o)
 .debug_abbrev  0x0000000000007de0      0x25e /usr/lib/gcc/arm-none-eabi/10.3.1/../../../arm-none-eabi/lib/thumb/v7e-m+fp/hard/libg.a(lib_a-fvwrite.o)
 .debug_abbrev  0x000000000000803e      0x1fe /usr/lib/gcc/arm-none-eabi/10.3.1/../../../arm-none-eabi/lib/thumb/v7e-m+fp/hard/libg.a(lib_a-fwalk.o)
 .debug_abbrev  0x000000000000823c      0x26a /usr/lib/gcc/arm-none-eabi/10.3.1/../../../arm-none-eabi/lib/thumb/v7e-m+fp/hard/libg.a(lib_a-localeconv.o)
 .debug_abbrev  0x00000000000084a6      0x2df /usr/lib/gcc/arm-none-eabi/10.3.1/../../../arm-none-eabi/lib/thumb/v7e-m+fp/hard/libg.a(lib_a-makebuf.o)
 .debug_abbrev  0x0000000000008785      0x21d /usr/lib/gcc/arm-none-eabi/10.3.1/../../../arm-none-eabi/lib/thumb/v7e-m+fp/hard/libg.a(lib_a-malloc.o)
 .debug_abbrev  0x00000000000089a2      0x2f6 /usr/lib/gcc/arm-none-eabi/10.3.1/../../../arm-none-eabi/lib/thumb/v7e-m+fp/hard/libg.a(lib_a-mallocr.o)
 .debug_abbrev  0x0000000000008c98       0x14 /usr/lib/gcc/arm-none-eabi/10.3.1/../../../arm-none-eabi/lib/thumb/v7e-m+fp/hard/libg.a(lib_a-memchr.o)
 .debug_abbrev  0x0000000000008cac       0x14 /usr/lib/gcc/arm-none-eabi/10.3.1/../../../arm-none-eabi/lib/thumb/v7e-m+fp/hard/libg.a(lib_a-memcpy.o)
 .debug_abbrev  0x0000000000008cc0       0xc0 /usr/lib/gcc/arm-none-eabi/10.3.1/../../../arm-none-eabi/lib/thumb/v7e-m+fp/hard/libg.a(lib_a-memmove.o)
 .debug_abbrev  0x0000000000008d80      0x1f0 /usr/lib/gcc/arm-none-eabi/10.3.1/../../../arm-none-eabi/lib/thumb/v7e-m+fp/hard/libg.a(lib_a-mlock.o)
 .debug_abbrev  0x0000000000008f70      0x4ae /usr/lib/gcc/arm-none-eabi/10.3.1/../../../arm-none-eabi/lib/thumb/v7e-m+fp/hard/libg.a(lib_a-mprec.o)
 .debug_abbrev  0x000000000000941e      0x2c7 /usr/lib/gcc/arm-none-eabi/10.3.1/../../../arm-none-eabi/lib/thumb/v7e-m+fp/hard/libg.a(lib_a-putc.o)
 .debug_abbrev  0x00000000000096e5      0x275 /usr/lib/gcc/arm-none-eabi/10.3.1/../../../arm-none-eabi/lib/thumb/v7e-m+fp/hard/libg.a(lib_a-reallocr.o)
 .debug_abbrev  0x000000000000995a      0x262 /usr/lib/gcc/arm-none-eabi/10.3.1/../../../arm-none-eabi/lib/thumb/v7e-m+fp/hard/libg.a(lib_a-stdio.o)
 .debug_abbrev  0x0000000000009bbc      0x430 /usr/lib/gcc/arm-none-eabi/10.3.1/../../../arm-none-eabi/lib/thumb/v7e-m+fp/hard/libg.a(lib_a-vfiprintf.o)
 .debug_abbrev  0x0000000000009fec      0x286 /usr/lib/gcc/arm-none-eabi/10.3.1/../../../arm-none-eabi/lib/thumb/v7e-m+fp/hard/libg.a(lib_a-wbuf.o)
 .debug_abbrev  0x000000000000a272      0x22a /usr/lib/gcc/arm-none-eabi/10.3.1/../../../arm-none-eabi/lib/thumb/v7e-m+fp/hard/libg.a(lib_a-assert.o)
 .debug_abbrev  0x000000000000a49c      0x241 /usr/lib/gcc/arm-none-eabi/10.3.1/../../../arm-none-eabi/lib/thumb/v7e-m+fp/hard/libg.a(lib_a-callocr.o)
 .debug_abbrev  0x000000000000a6dd      0x2f1 /usr/lib/gcc/arm-none-eabi/10.3.1/../../../arm-none-eabi/lib/thumb/v7e-m+fp/hard/libg.a(lib_a-fclose.o)
 .debug_abbrev  0x000000000000a9ce      0x255 /usr/lib/gcc/arm-none-eabi/10.3.1/../../../arm-none-eabi/lib/thumb/v7e-m+fp/hard/libg.a(lib_a-fiprintf.o)
 .debug_abbrev  0x000000000000ac23      0x34f /usr/lib/gcc/arm-none-eabi/10.3.1/../../../arm-none-eabi/lib/thumb/v7e-m+fp/hard/libg.a(lib_a-fputwc.o)
 .debug_abbrev  0x000000000000af72      0x2f5 /usr/lib/gcc/arm-none-eabi/10.3.1/../../../arm-none-eabi/lib/thumb/v7e-m+fp/hard/libg.a(lib_a-locale.o)
 .debug_abbrev  0x000000000000b267      0x247 /usr/lib/gcc/arm-none-eabi/10.3.1/../../../arm-none-eabi/lib/thumb/v7e-m+fp/hard/libg.a(lib_a-mbtowc_r.o)
 .debug_abbrev  0x000000000000b4ae       0x14 /usr/lib/gcc/arm-none-eabi/10.3.1/../../../arm-none-eabi/lib/thumb/v7e-m+fp/hard/libg.a(lib_a-strcmp.o)
 .debug_abbrev  0x000000000000b4c2      0x254 /usr/lib/gcc/arm-none-eabi/10.3.1/../../../arm-none-eabi/lib/thumb/v7e-m+fp/hard/libg.a(lib_a-wcrtomb.o)
 .debug_abbrev  0x000000000000b716      0x251 /usr/lib/gcc/arm-none-eabi/10.3.1/../../../arm-none-eabi/lib/thumb/v7e-m+fp/hard/libg.a(lib_a-wctomb_r.o)
 .debug_abbrev  0x000000000000b967       0x80 /usr/lib/gcc/arm-none-eabi/10.3.1/../../../arm-none-eabi/lib/thumb/v7e-m+fp/hard/libg.a(lib_a-abort.o)
 .debug_abbrev  0x000000000000b9e7      0x321 /usr/lib/gcc/arm-none-eabi/10.3.1/../../../arm-none-eabi/lib/thumb/v7e-m+fp/hard/libg.a(lib_a-signal.o)
 .debug_abbrev  0x000000000000bd08      0x242 /usr/lib/gcc/arm-none-eabi/10.3.1/../../../arm-none-eabi/lib/thumb/v7e-m+fp/hard/libg.a(lib_a-signalr.o)
 .debug_abbrev  0x000000000000bf4a      0x2f4 /usr/lib/gcc/arm-none-eabi/10.3.1/../../../arm-none-eabi/lib/thumb/v7e-m+fp/hard/libg.a(lib_a-reent.o)
 .debug_abbrev  0x000000000000c23e       0x14 /usr/lib/gcc/arm-none-eabi/10.3.1/thumb/v7e-m+fp/hard/libgcc.a(_arm_addsubdf3.o)
 .debug_abbrev  0x000000000000c252       0x14 /usr/lib/gcc/arm-none-eabi/10.3.1/thumb/v7e-m+fp/hard/libgcc.a(_arm_muldivdf3.o)
 .debug_abbrev  0x000000000000c266       0x14 /usr/lib/gcc/arm-none-eabi/10.3.1/thumb/v7e-m+fp/hard/libgcc.a(_arm_cmpdf2.o)
 .debug_abbrev  0x000000000000c27a       0x14 /usr/lib/gcc/arm-none-eabi/10.3.1/thumb/v7e-m+fp/hard/libgcc.a(_arm_unorddf2.o)
 .debug_abbrev  0x000000000000c28e       0x14 /usr/lib/gcc/arm-none-eabi/10.3.1/thumb/v7e-m+fp/hard/libgcc.a(_arm_fixdfsi.o)
 .debug_abbrev  0x000000000000c2a2       0x14 /usr/lib/gcc/arm-none-eabi/10.3.1/thumb/v7e-m+fp/hard/libgcc.a(_aeabi_uldivmod.o)
 .debug_abbrev  0x000000000000c2b6      0x163 /usr/lib/gcc/arm-none-eabi/10.3.1/thumb/v7e-m+fp/hard/libgcc.a(_udivmoddi4.o)
 .debug_abbrev  0x000000000000c419       0x14 /usr/lib/gcc/arm-none-eabi/10.3.1/thumb/v7e-m+fp/hard/libgcc.a(_dvmd_tls.o)
 .debug_abbrev  0x000000000000c42d       0x59 /usr/lib/gcc/arm-none-eabi/10.3.1/../../../arm-none-eabi/lib/thumb/v7e-m+fp/hard/libnosys.a(getpid.o)
 .debug_abbrev  0x000000000000c486       0x7e /usr/lib/gcc/arm-none-eabi/10.3.1/../../../arm-none-eabi/lib/thumb/v7e-m+fp/hard/libnosys.a(kill.o)
 .debug_abbrev  0x000000000000c504       0x6a /usr/lib/gcc/arm-none-eabi/10.3.1/../../../arm-none-eabi/lib/thumb/v7e-m+fp/hard/libnosys.a(_exit.o)

.debug_loc      0x0000000000000000    0x21946
 .debug_loc     0x0000000000000000      0x20e build/main.o
 .debug_loc     0x000000000000020e       0x74 build/mytest.o
 .debug_loc     0x0000000000000282       0x7c build/mes/pt_hook.o
 .debug_loc     0x00000000000002fe       0x76 build/monitor.o
 .debug_loc     0x0000000000000374      0x456 build/parser.o
 .debug_loc     0x00000000000007ca      0x23b build/dump.o
 .debug_loc     0x0000000000000a05      0x100 build/syscall.o
 .debug_loc     0x0000000000000b05      0x709 build/terminal.o
 .debug_loc     0x000000000000120e      0xcc3 build/decoder/decoder.o
 .debug_loc     0x0000000000001ed1       0xed build/Drivers/CMSIS/Device/ST/STM32F3xx/Source/Templates/system_stm32f3xx.o
 .debug_loc     0x0000000000001fbe     0x1a81 build/Drivers/STM32F3xx_HAL_Driver/Src/stm32f3xx_hal_rcc.o
 .debug_loc     0x0000000000003a3f       0x68 build/Drivers/STM32F3xx_HAL_Driver/Src/stm32f3xx_hal.o
 .debug_loc     0x0000000000003aa7      0x567 build/Drivers/STM32F3xx_HAL_Driver/Src/stm32f3xx_hal_cortex.o
 .debug_loc     0x000000000000400e      0x399 build/Drivers/STM32F3xx_HAL_Driver/Src/stm32f3xx_hal_gpio.o
 .debug_loc     0x00000000000043a7     0x103f build/Drivers/STM32F3xx_HAL_Driver/Src/stm32f3xx_hal_pcd.o
 .debug_loc     0x00000000000053e6      0x389 build/Drivers/STM32F3xx_HAL_Driver/Src/stm32f3xx_hal_pcd_ex.o
 .debug_loc     0x000000000000576f     0x2146 build/Drivers/STM32F3xx_HAL_Driver/Src/stm32f3xx_hal_i2c.o
 .debug_loc     0x00000000000078b5     0x1357 build/Drivers/STM32F3xx_HAL_Driver/Src/stm32f3xx_hal_spi.o
 .debug_loc     0x0000000000008c0c      0x6d6 build/Drivers/STM32_USB_Device_Library/Core/Src/usbd_core.o
 .debug_loc     0x00000000000092e2      0x86a build/Drivers/STM32_USB_Device_Library/Core/Src/usbd_ctlreq.o
 .debug_loc     0x0000000000009b4c      0x284 build/Drivers/STM32_USB_Device_Library/Core/Src/usbd_ioreq.o
 .debug_loc     0x0000000000009dd0      0x5d8 build/Drivers/STM32_USB_Device_Library/Class/CDC/Src/usbd_cdc.o
 .debug_loc     0x000000000000a3a8      0x6fb build/usbd_conf.o
 .debug_loc     0x000000000000aaa3      0x29b build/usbd_desc.o
 .debug_loc     0x000000000000ad3e       0xe8 build/usbd_cdc_interface.o
 .debug_loc     0x000000000000ae26      0x4b2 build/Drivers/BSP/STM32F3-Discovery/stm32f3_discovery.o
 .debug_loc     0x000000000000b2d8      0x245 build/Drivers/BSP/STM32F3-Discovery/stm32f3_discovery_accelerometer.o
 .debug_loc     0x000000000000b51d      0x38e build/Drivers/BSP/STM32F3-Discovery/stm32f3_discovery_gyroscope.o
 .debug_loc     0x000000000000b8ab      0x7ae build/Drivers/BSP/Components/lsm303dlhc/lsm303dlhc.o
 .debug_loc     0x000000000000c059      0x20f build/Drivers/BSP/Components/l3gd20/l3gd20.o
 .debug_loc     0x000000000000c268      0x20f build/Drivers/BSP/Components/i3g4250d/i3g4250d.o
 .debug_loc     0x000000000000c477      0x7ae build/Drivers/BSP/Components/lsm303agr/lsm303agr.o
 .debug_loc     0x000000000000cc25       0x32 /usr/lib/gcc/arm-none-eabi/10.3.1/../../../arm-none-eabi/lib/thumb/v7e-m+fp/hard/libg.a(lib_a-atexit.o)
 .debug_loc     0x000000000000cc57       0x68 /usr/lib/gcc/arm-none-eabi/10.3.1/../../../arm-none-eabi/lib/thumb/v7e-m+fp/hard/libg.a(lib_a-fini.o)
 .debug_loc     0x000000000000ccbf       0xba /usr/lib/gcc/arm-none-eabi/10.3.1/../../../arm-none-eabi/lib/thumb/v7e-m+fp/hard/libg.a(lib_a-init.o)
 .debug_loc     0x000000000000cd79      0x22c /usr/lib/gcc/arm-none-eabi/10.3.1/../../../arm-none-eabi/lib/thumb/v7e-m+fp/hard/libg.a(lib_a-memset.o)
 .debug_loc     0x000000000000cfa5       0x64 /usr/lib/gcc/arm-none-eabi/10.3.1/../../../arm-none-eabi/lib/thumb/v7e-m+fp/hard/libg.a(lib_a-printf.o)
 .debug_loc     0x000000000000d009       0x91 /usr/lib/gcc/arm-none-eabi/10.3.1/../../../arm-none-eabi/lib/thumb/v7e-m+fp/hard/libg.a(lib_a-putchar.o)
 .debug_loc     0x000000000000d09a      0x11c /usr/lib/gcc/arm-none-eabi/10.3.1/../../../arm-none-eabi/lib/thumb/v7e-m+fp/hard/libg.a(lib_a-puts.o)
 .debug_loc     0x000000000000d1b6      0x222 /usr/lib/gcc/arm-none-eabi/10.3.1/../../../arm-none-eabi/lib/thumb/v7e-m+fp/hard/libg.a(lib_a-setvbuf.o)
 .debug_loc     0x000000000000d3d8      0x23a /usr/lib/gcc/arm-none-eabi/10.3.1/../../../arm-none-eabi/lib/thumb/v7e-m+fp/hard/libg.a(lib_a-strcasecmp.o)
 .debug_loc     0x000000000000d612       0x25 /usr/lib/gcc/arm-none-eabi/10.3.1/../../../arm-none-eabi/lib/thumb/v7e-m+fp/hard/libg.a(lib_a-strcpy.o)
 .debug_loc     0x000000000000d637       0x6d /usr/lib/gcc/arm-none-eabi/10.3.1/../../../arm-none-eabi/lib/thumb/v7e-m+fp/hard/libg.a(lib_a-strtok.o)
 .debug_loc     0x000000000000d6a4      0x27e /usr/lib/gcc/arm-none-eabi/10.3.1/../../../arm-none-eabi/lib/thumb/v7e-m+fp/hard/libg.a(lib_a-strtok_r.o)
 .debug_loc     0x000000000000d922      0x54b /usr/lib/gcc/arm-none-eabi/10.3.1/../../../arm-none-eabi/lib/thumb/v7e-m+fp/hard/libg.a(lib_a-strtoul.o)
 .debug_loc     0x000000000000de6d     0x3838 /usr/lib/gcc/arm-none-eabi/10.3.1/../../../arm-none-eabi/lib/thumb/v7e-m+fp/hard/libg.a(lib_a-vfprintf.o)
 .debug_loc     0x00000000000116a5       0xe7 /usr/lib/gcc/arm-none-eabi/10.3.1/../../../arm-none-eabi/lib/thumb/v7e-m+fp/hard/libg.a(lib_a-wsetup.o)
 .debug_loc     0x000000000001178c      0x138 /usr/lib/gcc/arm-none-eabi/10.3.1/../../../arm-none-eabi/lib/thumb/v7e-m+fp/hard/libg.a(lib_a-__atexit.o)
 .debug_loc     0x00000000000118c4      0x1cc /usr/lib/gcc/arm-none-eabi/10.3.1/../../../arm-none-eabi/lib/thumb/v7e-m+fp/hard/libg.a(lib_a-__call_atexit.o)
 .debug_loc     0x0000000000011a90     0x3328 /usr/lib/gcc/arm-none-eabi/10.3.1/../../../arm-none-eabi/lib/thumb/v7e-m+fp/hard/libg.a(lib_a-dtoa.o)
 .debug_loc     0x0000000000014db8      0x441 /usr/lib/gcc/arm-none-eabi/10.3.1/../../../arm-none-eabi/lib/thumb/v7e-m+fp/hard/libg.a(lib_a-fflush.o)
 .debug_loc     0x00000000000151f9      0x3cc /usr/lib/gcc/arm-none-eabi/10.3.1/../../../arm-none-eabi/lib/thumb/v7e-m+fp/hard/libg.a(lib_a-findfp.o)
 .debug_loc     0x00000000000155c5      0x6cc /usr/lib/gcc/arm-none-eabi/10.3.1/../../../arm-none-eabi/lib/thumb/v7e-m+fp/hard/libg.a(lib_a-freer.o)
 .debug_loc     0x0000000000015c91      0x76c /usr/lib/gcc/arm-none-eabi/10.3.1/../../../arm-none-eabi/lib/thumb/v7e-m+fp/hard/libg.a(lib_a-fvwrite.o)
 .debug_loc     0x00000000000163fd      0x1bf /usr/lib/gcc/arm-none-eabi/10.3.1/../../../arm-none-eabi/lib/thumb/v7e-m+fp/hard/libg.a(lib_a-fwalk.o)
 .debug_loc     0x00000000000165bc       0x6f /usr/lib/gcc/arm-none-eabi/10.3.1/../../../arm-none-eabi/lib/thumb/v7e-m+fp/hard/libg.a(lib_a-localeconv.o)
 .debug_loc     0x000000000001662b      0x39f /usr/lib/gcc/arm-none-eabi/10.3.1/../../../arm-none-eabi/lib/thumb/v7e-m+fp/hard/libg.a(lib_a-makebuf.o)
 .debug_loc     0x00000000000169ca       0x64 /usr/lib/gcc/arm-none-eabi/10.3.1/../../../arm-none-eabi/lib/thumb/v7e-m+fp/hard/libg.a(lib_a-malloc.o)
 .debug_loc     0x0000000000016a2e      0xea2 /usr/lib/gcc/arm-none-eabi/10.3.1/../../../arm-none-eabi/lib/thumb/v7e-m+fp/hard/libg.a(lib_a-mallocr.o)
 .debug_loc     0x00000000000178d0      0x34f /usr/lib/gcc/arm-none-eabi/10.3.1/../../../arm-none-eabi/lib/thumb/v7e-m+fp/hard/libg.a(lib_a-memmove.o)
 .debug_loc     0x0000000000017c1f     0x2704 /usr/lib/gcc/arm-none-eabi/10.3.1/../../../arm-none-eabi/lib/thumb/v7e-m+fp/hard/libg.a(lib_a-mprec.o)
 .debug_loc     0x000000000001a323      0x48c /usr/lib/gcc/arm-none-eabi/10.3.1/../../../arm-none-eabi/lib/thumb/v7e-m+fp/hard/libg.a(lib_a-putc.o)
 .debug_loc     0x000000000001a7af     0x17d9 /usr/lib/gcc/arm-none-eabi/10.3.1/../../../arm-none-eabi/lib/thumb/v7e-m+fp/hard/libg.a(lib_a-reallocr.o)
 .debug_loc     0x000000000001bf88      0x3a0 /usr/lib/gcc/arm-none-eabi/10.3.1/../../../arm-none-eabi/lib/thumb/v7e-m+fp/hard/libg.a(lib_a-stdio.o)
 .debug_loc     0x000000000001c328     0x23a3 /usr/lib/gcc/arm-none-eabi/10.3.1/../../../arm-none-eabi/lib/thumb/v7e-m+fp/hard/libg.a(lib_a-vfiprintf.o)
 .debug_loc     0x000000000001e6cb      0x1b0 /usr/lib/gcc/arm-none-eabi/10.3.1/../../../arm-none-eabi/lib/thumb/v7e-m+fp/hard/libg.a(lib_a-wbuf.o)
 .debug_loc     0x000000000001e87b      0x185 /usr/lib/gcc/arm-none-eabi/10.3.1/../../../arm-none-eabi/lib/thumb/v7e-m+fp/hard/libg.a(lib_a-assert.o)
 .debug_loc     0x000000000001ea00      0x2d6 /usr/lib/gcc/arm-none-eabi/10.3.1/../../../arm-none-eabi/lib/thumb/v7e-m+fp/hard/libg.a(lib_a-callocr.o)
 .debug_loc     0x000000000001ecd6      0x2f1 /usr/lib/gcc/arm-none-eabi/10.3.1/../../../arm-none-eabi/lib/thumb/v7e-m+fp/hard/libg.a(lib_a-fclose.o)
 .debug_loc     0x000000000001efc7       0xa6 /usr/lib/gcc/arm-none-eabi/10.3.1/../../../arm-none-eabi/lib/thumb/v7e-m+fp/hard/libg.a(lib_a-fiprintf.o)
 .debug_loc     0x000000000001f06d      0x396 /usr/lib/gcc/arm-none-eabi/10.3.1/../../../arm-none-eabi/lib/thumb/v7e-m+fp/hard/libg.a(lib_a-fputwc.o)
 .debug_loc     0x000000000001f403      0x27d /usr/lib/gcc/arm-none-eabi/10.3.1/../../../arm-none-eabi/lib/thumb/v7e-m+fp/hard/libg.a(lib_a-locale.o)
 .debug_loc     0x000000000001f680      0x21d /usr/lib/gcc/arm-none-eabi/10.3.1/../../../arm-none-eabi/lib/thumb/v7e-m+fp/hard/libg.a(lib_a-mbtowc_r.o)
 .debug_loc     0x000000000001f89d      0x2b1 /usr/lib/gcc/arm-none-eabi/10.3.1/../../../arm-none-eabi/lib/thumb/v7e-m+fp/hard/libg.a(lib_a-wcrtomb.o)
 .debug_loc     0x000000000001fb4e      0x13a /usr/lib/gcc/arm-none-eabi/10.3.1/../../../arm-none-eabi/lib/thumb/v7e-m+fp/hard/libg.a(lib_a-wctomb_r.o)
 .debug_loc     0x000000000001fc88      0x967 /usr/lib/gcc/arm-none-eabi/10.3.1/../../../arm-none-eabi/lib/thumb/v7e-m+fp/hard/libg.a(lib_a-signal.o)
 .debug_loc     0x00000000000205ef       0xd0 /usr/lib/gcc/arm-none-eabi/10.3.1/../../../arm-none-eabi/lib/thumb/v7e-m+fp/hard/libg.a(lib_a-signalr.o)
 .debug_loc     0x00000000000206bf      0x23e /usr/lib/gcc/arm-none-eabi/10.3.1/../../../arm-none-eabi/lib/thumb/v7e-m+fp/hard/libg.a(lib_a-reent.o)
 .debug_loc     0x00000000000208fd     0x100f /usr/lib/gcc/arm-none-eabi/10.3.1/thumb/v7e-m+fp/hard/libgcc.a(_udivmoddi4.o)
 .debug_loc     0x000000000002190c       0x25 /usr/lib/gcc/arm-none-eabi/10.3.1/../../../arm-none-eabi/lib/thumb/v7e-m+fp/hard/libnosys.a(kill.o)
 .debug_loc     0x0000000000021931       0x15 /usr/lib/gcc/arm-none-eabi/10.3.1/../../../arm-none-eabi/lib/thumb/v7e-m+fp/hard/libnosys.a(_exit.o)

.debug_aranges  0x0000000000000000     0x1788
 .debug_aranges
                0x0000000000000000       0x50 build/main.o
 .debug_aranges
                0x0000000000000050       0x20 build/mycode.o
 .debug_aranges
                0x0000000000000070       0x20 build/mytest.o
 .debug_aranges
                0x0000000000000090       0x20 build/mes/pt_hook.o
 .debug_aranges
                0x00000000000000b0       0x20 build/mes/pt_asm.o
 .debug_aranges
                0x00000000000000d0       0x28 build/monitor.o
 .debug_aranges
                0x00000000000000f8       0x40 build/parser.o
 .debug_aranges
                0x0000000000000138       0x28 build/dump.o
 .debug_aranges
                0x0000000000000160       0x40 build/syscall.o
 .debug_aranges
                0x00000000000001a0       0x70 build/terminal.o
 .debug_aranges
                0x0000000000000210       0x60 build/decoder/decoder.o
 .debug_aranges
                0x0000000000000270       0x18 build/decoder/STM32F30x_decoder.o
 .debug_aranges
                0x0000000000000288       0x28 build/Drivers/CMSIS/Device/ST/STM32F3xx/Source/Templates/system_stm32f3xx.o
 .debug_aranges
                0x00000000000002b0       0x88 build/Drivers/STM32F3xx_HAL_Driver/Src/stm32f3xx_hal_rcc.o
 .debug_aranges
                0x0000000000000338       0xa8 build/Drivers/STM32F3xx_HAL_Driver/Src/stm32f3xx_hal.o
 .debug_aranges
                0x00000000000003e0       0x90 build/Drivers/STM32F3xx_HAL_Driver/Src/stm32f3xx_hal_cortex.o
 .debug_aranges
                0x0000000000000470       0x58 build/Drivers/STM32F3xx_HAL_Driver/Src/stm32f3xx_hal_gpio.o
 .debug_aranges
                0x00000000000004c8       0xc0 build/Drivers/STM32F3xx_HAL_Driver/Src/stm32f3xx_hal_pcd.o
 .debug_aranges
                0x0000000000000588       0x38 build/Drivers/STM32F3xx_HAL_Driver/Src/stm32f3xx_hal_pcd_ex.o
 .debug_aranges
                0x00000000000005c0      0x158 build/Drivers/STM32F3xx_HAL_Driver/Src/stm32f3xx_hal_i2c.o
 .debug_aranges
                0x0000000000000718      0x140 build/Drivers/STM32F3xx_HAL_Driver/Src/stm32f3xx_hal_spi.o
 .debug_aranges
                0x0000000000000858       0xa8 build/Drivers/STM32_USB_Device_Library/Core/Src/usbd_core.o
 .debug_aranges
                0x0000000000000900       0x50 build/Drivers/STM32_USB_Device_Library/Core/Src/usbd_ctlreq.o
 .debug_aranges
                0x0000000000000950       0x50 build/Drivers/STM32_USB_Device_Library/Core/Src/usbd_ioreq.o
 .debug_aranges
                0x00000000000009a0       0x90 build/Drivers/STM32_USB_Device_Library/Class/CDC/Src/usbd_cdc.o
 .debug_aranges
                0x0000000000000a30       0xf8 build/usbd_conf.o
 .debug_aranges
                0x0000000000000b28       0x58 build/usbd_desc.o
 .debug_aranges
                0x0000000000000b80       0x38 build/usbd_cdc_interface.o
 .debug_aranges
                0x0000000000000bb8       0xa0 build/Drivers/BSP/STM32F3-Discovery/stm32f3_discovery.o
 .debug_aranges
                0x0000000000000c58       0x30 build/Drivers/BSP/STM32F3-Discovery/stm32f3_discovery_accelerometer.o
 .debug_aranges
                0x0000000000000c88       0x50 build/Drivers/BSP/STM32F3-Discovery/stm32f3_discovery_gyroscope.o
 .debug_aranges
                0x0000000000000cd8       0xb0 build/Drivers/BSP/Components/lsm303dlhc/lsm303dlhc.o
 .debug_aranges
                0x0000000000000d88       0x78 build/Drivers/BSP/Components/l3gd20/l3gd20.o
 .debug_aranges
                0x0000000000000e00       0x78 build/Drivers/BSP/Components/i3g4250d/i3g4250d.o
 .debug_aranges
                0x0000000000000e78       0xb0 build/Drivers/BSP/Components/lsm303agr/lsm303agr.o
 .debug_aranges
                0x0000000000000f28       0x28 build/Drivers/CMSIS/Device/ST/STM32F3xx/Source/Templates/gcc/startup_stm32f303xc.o
 .debug_aranges
                0x0000000000000f50       0x20 /usr/lib/gcc/arm-none-eabi/10.3.1/../../../arm-none-eabi/lib/thumb/v7e-m+fp/hard/libg.a(lib_a-atexit.o)
 .debug_aranges
                0x0000000000000f70       0x18 /usr/lib/gcc/arm-none-eabi/10.3.1/../../../arm-none-eabi/lib/thumb/v7e-m+fp/hard/libg.a(lib_a-ctype_.o)
 .debug_aranges
                0x0000000000000f88       0x20 /usr/lib/gcc/arm-none-eabi/10.3.1/../../../arm-none-eabi/lib/thumb/v7e-m+fp/hard/libg.a(lib_a-errno.o)
 .debug_aranges
                0x0000000000000fa8       0x20 /usr/lib/gcc/arm-none-eabi/10.3.1/../../../arm-none-eabi/lib/thumb/v7e-m+fp/hard/libg.a(lib_a-fini.o)
 .debug_aranges
                0x0000000000000fc8       0x18 /usr/lib/gcc/arm-none-eabi/10.3.1/../../../arm-none-eabi/lib/thumb/v7e-m+fp/hard/libg.a(lib_a-impure.o)
 .debug_aranges
                0x0000000000000fe0       0x20 /usr/lib/gcc/arm-none-eabi/10.3.1/../../../arm-none-eabi/lib/thumb/v7e-m+fp/hard/libg.a(lib_a-init.o)
 .debug_aranges
                0x0000000000001000       0x20 /usr/lib/gcc/arm-none-eabi/10.3.1/../../../arm-none-eabi/lib/thumb/v7e-m+fp/hard/libg.a(lib_a-memset.o)
 .debug_aranges
                0x0000000000001020       0x20 /usr/lib/gcc/arm-none-eabi/10.3.1/../../../arm-none-eabi/lib/thumb/v7e-m+fp/hard/libg.a(lib_a-printf.o)
 .debug_aranges
                0x0000000000001040       0x20 /usr/lib/gcc/arm-none-eabi/10.3.1/../../../arm-none-eabi/lib/thumb/v7e-m+fp/hard/libg.a(lib_a-putchar.o)
 .debug_aranges
                0x0000000000001060       0x20 /usr/lib/gcc/arm-none-eabi/10.3.1/../../../arm-none-eabi/lib/thumb/v7e-m+fp/hard/libg.a(lib_a-puts.o)
 .debug_aranges
                0x0000000000001080       0x20 /usr/lib/gcc/arm-none-eabi/10.3.1/../../../arm-none-eabi/lib/thumb/v7e-m+fp/hard/libg.a(lib_a-setvbuf.o)
 .debug_aranges
                0x00000000000010a0       0x20 /usr/lib/gcc/arm-none-eabi/10.3.1/../../../arm-none-eabi/lib/thumb/v7e-m+fp/hard/libg.a(lib_a-strcasecmp.o)
 .debug_aranges
                0x00000000000010c0       0x20 /usr/lib/gcc/arm-none-eabi/10.3.1/../../../arm-none-eabi/lib/thumb/v7e-m+fp/hard/libg.a(lib_a-strcpy.o)
 .debug_aranges
                0x00000000000010e0       0x20 /usr/lib/gcc/arm-none-eabi/10.3.1/../../../arm-none-eabi/lib/thumb/v7e-m+fp/hard/libg.a(lib_a-strlen.o)
 .debug_aranges
                0x0000000000001100       0x20 /usr/lib/gcc/arm-none-eabi/10.3.1/../../../arm-none-eabi/lib/thumb/v7e-m+fp/hard/libg.a(lib_a-strtok.o)
 .debug_aranges
                0x0000000000001120       0x20 /usr/lib/gcc/arm-none-eabi/10.3.1/../../../arm-none-eabi/lib/thumb/v7e-m+fp/hard/libg.a(lib_a-strtok_r.o)
 .debug_aranges
                0x0000000000001140       0x20 /usr/lib/gcc/arm-none-eabi/10.3.1/../../../arm-none-eabi/lib/thumb/v7e-m+fp/hard/libg.a(lib_a-strtoul.o)
 .debug_aranges
                0x0000000000001160       0x20 /usr/lib/gcc/arm-none-eabi/10.3.1/../../../arm-none-eabi/lib/thumb/v7e-m+fp/hard/libg.a(lib_a-vfprintf.o)
 .debug_aranges
                0x0000000000001180       0x20 /usr/lib/gcc/arm-none-eabi/10.3.1/../../../arm-none-eabi/lib/thumb/v7e-m+fp/hard/libg.a(lib_a-wsetup.o)
 .debug_aranges
                0x00000000000011a0       0x20 /usr/lib/gcc/arm-none-eabi/10.3.1/../../../arm-none-eabi/lib/thumb/v7e-m+fp/hard/libg.a(lib_a-__atexit.o)
 .debug_aranges
                0x00000000000011c0       0x28 /usr/lib/gcc/arm-none-eabi/10.3.1/../../../arm-none-eabi/lib/thumb/v7e-m+fp/hard/libg.a(lib_a-__call_atexit.o)
 .debug_aranges
                0x00000000000011e8       0x20 /usr/lib/gcc/arm-none-eabi/10.3.1/../../../arm-none-eabi/lib/thumb/v7e-m+fp/hard/libg.a(lib_a-dtoa.o)
 .debug_aranges
                0x0000000000001208       0x20 /usr/lib/gcc/arm-none-eabi/10.3.1/../../../arm-none-eabi/lib/thumb/v7e-m+fp/hard/libg.a(lib_a-fflush.o)
 .debug_aranges
                0x0000000000001228       0x20 /usr/lib/gcc/arm-none-eabi/10.3.1/../../../arm-none-eabi/lib/thumb/v7e-m+fp/hard/libg.a(lib_a-findfp.o)
 .debug_aranges
                0x0000000000001248       0x20 /usr/lib/gcc/arm-none-eabi/10.3.1/../../../arm-none-eabi/lib/thumb/v7e-m+fp/hard/libg.a(lib_a-freer.o)
 .debug_aranges
                0x0000000000001268       0x20 /usr/lib/gcc/arm-none-eabi/10.3.1/../../../arm-none-eabi/lib/thumb/v7e-m+fp/hard/libg.a(lib_a-fvwrite.o)
 .debug_aranges
                0x0000000000001288       0x20 /usr/lib/gcc/arm-none-eabi/10.3.1/../../../arm-none-eabi/lib/thumb/v7e-m+fp/hard/libg.a(lib_a-fwalk.o)
 .debug_aranges
                0x00000000000012a8       0x20 /usr/lib/gcc/arm-none-eabi/10.3.1/../../../arm-none-eabi/lib/thumb/v7e-m+fp/hard/libg.a(lib_a-localeconv.o)
 .debug_aranges
                0x00000000000012c8       0x20 /usr/lib/gcc/arm-none-eabi/10.3.1/../../../arm-none-eabi/lib/thumb/v7e-m+fp/hard/libg.a(lib_a-makebuf.o)
 .debug_aranges
                0x00000000000012e8       0x20 /usr/lib/gcc/arm-none-eabi/10.3.1/../../../arm-none-eabi/lib/thumb/v7e-m+fp/hard/libg.a(lib_a-malloc.o)
 .debug_aranges
                0x0000000000001308       0x20 /usr/lib/gcc/arm-none-eabi/10.3.1/../../../arm-none-eabi/lib/thumb/v7e-m+fp/hard/libg.a(lib_a-mallocr.o)
 .debug_aranges
                0x0000000000001328       0x20 /usr/lib/gcc/arm-none-eabi/10.3.1/../../../arm-none-eabi/lib/thumb/v7e-m+fp/hard/libg.a(lib_a-memchr.o)
 .debug_aranges
                0x0000000000001348       0x20 /usr/lib/gcc/arm-none-eabi/10.3.1/../../../arm-none-eabi/lib/thumb/v7e-m+fp/hard/libg.a(lib_a-memcpy.o)
 .debug_aranges
                0x0000000000001368       0x20 /usr/lib/gcc/arm-none-eabi/10.3.1/../../../arm-none-eabi/lib/thumb/v7e-m+fp/hard/libg.a(lib_a-memmove.o)
 .debug_aranges
                0x0000000000001388       0x20 /usr/lib/gcc/arm-none-eabi/10.3.1/../../../arm-none-eabi/lib/thumb/v7e-m+fp/hard/libg.a(lib_a-mlock.o)
 .debug_aranges
                0x00000000000013a8       0x20 /usr/lib/gcc/arm-none-eabi/10.3.1/../../../arm-none-eabi/lib/thumb/v7e-m+fp/hard/libg.a(lib_a-mprec.o)
 .debug_aranges
                0x00000000000013c8       0x20 /usr/lib/gcc/arm-none-eabi/10.3.1/../../../arm-none-eabi/lib/thumb/v7e-m+fp/hard/libg.a(lib_a-putc.o)
 .debug_aranges
                0x00000000000013e8       0x20 /usr/lib/gcc/arm-none-eabi/10.3.1/../../../arm-none-eabi/lib/thumb/v7e-m+fp/hard/libg.a(lib_a-reallocr.o)
 .debug_aranges
                0x0000000000001408       0x20 /usr/lib/gcc/arm-none-eabi/10.3.1/../../../arm-none-eabi/lib/thumb/v7e-m+fp/hard/libg.a(lib_a-stdio.o)
 .debug_aranges
                0x0000000000001428       0x20 /usr/lib/gcc/arm-none-eabi/10.3.1/../../../arm-none-eabi/lib/thumb/v7e-m+fp/hard/libg.a(lib_a-vfiprintf.o)
 .debug_aranges
                0x0000000000001448       0x20 /usr/lib/gcc/arm-none-eabi/10.3.1/../../../arm-none-eabi/lib/thumb/v7e-m+fp/hard/libg.a(lib_a-wbuf.o)
 .debug_aranges
                0x0000000000001468       0x20 /usr/lib/gcc/arm-none-eabi/10.3.1/../../../arm-none-eabi/lib/thumb/v7e-m+fp/hard/libg.a(lib_a-assert.o)
 .debug_aranges
                0x0000000000001488       0x20 /usr/lib/gcc/arm-none-eabi/10.3.1/../../../arm-none-eabi/lib/thumb/v7e-m+fp/hard/libg.a(lib_a-callocr.o)
 .debug_aranges
                0x00000000000014a8       0x20 /usr/lib/gcc/arm-none-eabi/10.3.1/../../../arm-none-eabi/lib/thumb/v7e-m+fp/hard/libg.a(lib_a-fclose.o)
 .debug_aranges
                0x00000000000014c8       0x20 /usr/lib/gcc/arm-none-eabi/10.3.1/../../../arm-none-eabi/lib/thumb/v7e-m+fp/hard/libg.a(lib_a-fiprintf.o)
 .debug_aranges
                0x00000000000014e8       0x20 /usr/lib/gcc/arm-none-eabi/10.3.1/../../../arm-none-eabi/lib/thumb/v7e-m+fp/hard/libg.a(lib_a-fputwc.o)
 .debug_aranges
                0x0000000000001508       0x20 /usr/lib/gcc/arm-none-eabi/10.3.1/../../../arm-none-eabi/lib/thumb/v7e-m+fp/hard/libg.a(lib_a-locale.o)
 .debug_aranges
                0x0000000000001528       0x20 /usr/lib/gcc/arm-none-eabi/10.3.1/../../../arm-none-eabi/lib/thumb/v7e-m+fp/hard/libg.a(lib_a-mbtowc_r.o)
 .debug_aranges
                0x0000000000001548       0x20 /usr/lib/gcc/arm-none-eabi/10.3.1/../../../arm-none-eabi/lib/thumb/v7e-m+fp/hard/libg.a(lib_a-strcmp.o)
 .debug_aranges
                0x0000000000001568       0x20 /usr/lib/gcc/arm-none-eabi/10.3.1/../../../arm-none-eabi/lib/thumb/v7e-m+fp/hard/libg.a(lib_a-wcrtomb.o)
 .debug_aranges
                0x0000000000001588       0x20 /usr/lib/gcc/arm-none-eabi/10.3.1/../../../arm-none-eabi/lib/thumb/v7e-m+fp/hard/libg.a(lib_a-wctomb_r.o)
 .debug_aranges
                0x00000000000015a8       0x20 /usr/lib/gcc/arm-none-eabi/10.3.1/../../../arm-none-eabi/lib/thumb/v7e-m+fp/hard/libg.a(lib_a-abort.o)
 .debug_aranges
                0x00000000000015c8       0x20 /usr/lib/gcc/arm-none-eabi/10.3.1/../../../arm-none-eabi/lib/thumb/v7e-m+fp/hard/libg.a(lib_a-signal.o)
 .debug_aranges
                0x00000000000015e8       0x20 /usr/lib/gcc/arm-none-eabi/10.3.1/../../../arm-none-eabi/lib/thumb/v7e-m+fp/hard/libg.a(lib_a-signalr.o)
 .debug_aranges
                0x0000000000001608       0x20 /usr/lib/gcc/arm-none-eabi/10.3.1/../../../arm-none-eabi/lib/thumb/v7e-m+fp/hard/libg.a(lib_a-reent.o)
 .debug_aranges
                0x0000000000001628       0x20 /usr/lib/gcc/arm-none-eabi/10.3.1/thumb/v7e-m+fp/hard/libgcc.a(_arm_addsubdf3.o)
 .debug_aranges
                0x0000000000001648       0x20 /usr/lib/gcc/arm-none-eabi/10.3.1/thumb/v7e-m+fp/hard/libgcc.a(_arm_muldivdf3.o)
 .debug_aranges
                0x0000000000001668       0x20 /usr/lib/gcc/arm-none-eabi/10.3.1/thumb/v7e-m+fp/hard/libgcc.a(_arm_cmpdf2.o)
 .debug_aranges
                0x0000000000001688       0x20 /usr/lib/gcc/arm-none-eabi/10.3.1/thumb/v7e-m+fp/hard/libgcc.a(_arm_unorddf2.o)
 .debug_aranges
                0x00000000000016a8       0x20 /usr/lib/gcc/arm-none-eabi/10.3.1/thumb/v7e-m+fp/hard/libgcc.a(_arm_fixdfsi.o)
 .debug_aranges
                0x00000000000016c8       0x20 /usr/lib/gcc/arm-none-eabi/10.3.1/thumb/v7e-m+fp/hard/libgcc.a(_aeabi_uldivmod.o)
 .debug_aranges
                0x00000000000016e8       0x20 /usr/lib/gcc/arm-none-eabi/10.3.1/thumb/v7e-m+fp/hard/libgcc.a(_udivmoddi4.o)
 .debug_aranges
                0x0000000000001708       0x20 /usr/lib/gcc/arm-none-eabi/10.3.1/thumb/v7e-m+fp/hard/libgcc.a(_dvmd_tls.o)
 .debug_aranges
                0x0000000000001728       0x20 /usr/lib/gcc/arm-none-eabi/10.3.1/../../../arm-none-eabi/lib/thumb/v7e-m+fp/hard/libnosys.a(getpid.o)
 .debug_aranges
                0x0000000000001748       0x20 /usr/lib/gcc/arm-none-eabi/10.3.1/../../../arm-none-eabi/lib/thumb/v7e-m+fp/hard/libnosys.a(kill.o)
 .debug_aranges
                0x0000000000001768       0x20 /usr/lib/gcc/arm-none-eabi/10.3.1/../../../arm-none-eabi/lib/thumb/v7e-m+fp/hard/libnosys.a(_exit.o)

.debug_ranges   0x0000000000000000     0x2200
 .debug_ranges  0x0000000000000000       0x80 build/main.o
 .debug_ranges  0x0000000000000080       0x28 build/mytest.o
 .debug_ranges  0x00000000000000a8       0x10 build/mes/pt_hook.o
 .debug_ranges  0x00000000000000b8       0x18 build/monitor.o
 .debug_ranges  0x00000000000000d0       0x58 build/parser.o
 .debug_ranges  0x0000000000000128       0x48 build/dump.o
 .debug_ranges  0x0000000000000170       0x30 build/syscall.o
 .debug_ranges  0x00000000000001a0       0x90 build/terminal.o
 .debug_ranges  0x0000000000000230       0xb8 build/decoder/decoder.o
 .debug_ranges  0x00000000000002e8       0x18 build/Drivers/CMSIS/Device/ST/STM32F3xx/Source/Templates/system_stm32f3xx.o
 .debug_ranges  0x0000000000000300      0x1e0 build/Drivers/STM32F3xx_HAL_Driver/Src/stm32f3xx_hal_rcc.o
 .debug_ranges  0x00000000000004e0       0x98 build/Drivers/STM32F3xx_HAL_Driver/Src/stm32f3xx_hal.o
 .debug_ranges  0x0000000000000578      0x138 build/Drivers/STM32F3xx_HAL_Driver/Src/stm32f3xx_hal_cortex.o
 .debug_ranges  0x00000000000006b0       0x48 build/Drivers/STM32F3xx_HAL_Driver/Src/stm32f3xx_hal_gpio.o
 .debug_ranges  0x00000000000006f8      0x278 build/Drivers/STM32F3xx_HAL_Driver/Src/stm32f3xx_hal_pcd.o
 .debug_ranges  0x0000000000000970       0x28 build/Drivers/STM32F3xx_HAL_Driver/Src/stm32f3xx_hal_pcd_ex.o
 .debug_ranges  0x0000000000000998      0x1c8 build/Drivers/STM32F3xx_HAL_Driver/Src/stm32f3xx_hal_i2c.o
 .debug_ranges  0x0000000000000b60      0x190 build/Drivers/STM32F3xx_HAL_Driver/Src/stm32f3xx_hal_spi.o
 .debug_ranges  0x0000000000000cf0       0x98 build/Drivers/STM32_USB_Device_Library/Core/Src/usbd_core.o
 .debug_ranges  0x0000000000000d88       0xd0 build/Drivers/STM32_USB_Device_Library/Core/Src/usbd_ctlreq.o
 .debug_ranges  0x0000000000000e58       0x40 build/Drivers/STM32_USB_Device_Library/Core/Src/usbd_ioreq.o
 .debug_ranges  0x0000000000000e98       0x80 build/Drivers/STM32_USB_Device_Library/Class/CDC/Src/usbd_cdc.o
 .debug_ranges  0x0000000000000f18       0xe8 build/usbd_conf.o
 .debug_ranges  0x0000000000001000       0x48 build/usbd_desc.o
 .debug_ranges  0x0000000000001048       0x28 build/usbd_cdc_interface.o
 .debug_ranges  0x0000000000001070      0x120 build/Drivers/BSP/STM32F3-Discovery/stm32f3_discovery.o
 .debug_ranges  0x0000000000001190       0x20 build/Drivers/BSP/STM32F3-Discovery/stm32f3_discovery_accelerometer.o
 .debug_ranges  0x00000000000011b0       0x40 build/Drivers/BSP/STM32F3-Discovery/stm32f3_discovery_gyroscope.o
 .debug_ranges  0x00000000000011f0       0xa0 build/Drivers/BSP/Components/lsm303dlhc/lsm303dlhc.o
 .debug_ranges  0x0000000000001290       0x68 build/Drivers/BSP/Components/l3gd20/l3gd20.o
 .debug_ranges  0x00000000000012f8       0x68 build/Drivers/BSP/Components/i3g4250d/i3g4250d.o
 .debug_ranges  0x0000000000001360       0xa0 build/Drivers/BSP/Components/lsm303agr/lsm303agr.o
 .debug_ranges  0x0000000000001400       0x20 build/Drivers/CMSIS/Device/ST/STM32F3xx/Source/Templates/gcc/startup_stm32f303xc.o
 .debug_ranges  0x0000000000001420       0x20 /usr/lib/gcc/arm-none-eabi/10.3.1/../../../arm-none-eabi/lib/thumb/v7e-m+fp/hard/libg.a(lib_a-puts.o)
 .debug_ranges  0x0000000000001440       0x20 /usr/lib/gcc/arm-none-eabi/10.3.1/../../../arm-none-eabi/lib/thumb/v7e-m+fp/hard/libg.a(lib_a-setvbuf.o)
 .debug_ranges  0x0000000000001460       0x58 /usr/lib/gcc/arm-none-eabi/10.3.1/../../../arm-none-eabi/lib/thumb/v7e-m+fp/hard/libg.a(lib_a-strcasecmp.o)
 .debug_ranges  0x00000000000014b8       0x10 /usr/lib/gcc/arm-none-eabi/10.3.1/../../../arm-none-eabi/lib/thumb/v7e-m+fp/hard/libg.a(lib_a-strcpy.o)
 .debug_ranges  0x00000000000014c8      0x180 /usr/lib/gcc/arm-none-eabi/10.3.1/../../../arm-none-eabi/lib/thumb/v7e-m+fp/hard/libg.a(lib_a-vfprintf.o)
 .debug_ranges  0x0000000000001648       0x28 /usr/lib/gcc/arm-none-eabi/10.3.1/../../../arm-none-eabi/lib/thumb/v7e-m+fp/hard/libg.a(lib_a-wsetup.o)
 .debug_ranges  0x0000000000001670       0x50 /usr/lib/gcc/arm-none-eabi/10.3.1/../../../arm-none-eabi/lib/thumb/v7e-m+fp/hard/libg.a(lib_a-__call_atexit.o)
 .debug_ranges  0x00000000000016c0       0x38 /usr/lib/gcc/arm-none-eabi/10.3.1/../../../arm-none-eabi/lib/thumb/v7e-m+fp/hard/libg.a(lib_a-dtoa.o)
 .debug_ranges  0x00000000000016f8       0xa0 /usr/lib/gcc/arm-none-eabi/10.3.1/../../../arm-none-eabi/lib/thumb/v7e-m+fp/hard/libg.a(lib_a-fflush.o)
 .debug_ranges  0x0000000000001798       0xf8 /usr/lib/gcc/arm-none-eabi/10.3.1/../../../arm-none-eabi/lib/thumb/v7e-m+fp/hard/libg.a(lib_a-findfp.o)
 .debug_ranges  0x0000000000001890       0x28 /usr/lib/gcc/arm-none-eabi/10.3.1/../../../arm-none-eabi/lib/thumb/v7e-m+fp/hard/libg.a(lib_a-fvwrite.o)
 .debug_ranges  0x00000000000018b8       0x80 /usr/lib/gcc/arm-none-eabi/10.3.1/../../../arm-none-eabi/lib/thumb/v7e-m+fp/hard/libg.a(lib_a-makebuf.o)
 .debug_ranges  0x0000000000001938       0x50 /usr/lib/gcc/arm-none-eabi/10.3.1/../../../arm-none-eabi/lib/thumb/v7e-m+fp/hard/libg.a(lib_a-mallocr.o)
 .debug_ranges  0x0000000000001988      0x170 /usr/lib/gcc/arm-none-eabi/10.3.1/../../../arm-none-eabi/lib/thumb/v7e-m+fp/hard/libg.a(lib_a-mprec.o)
 .debug_ranges  0x0000000000001af8       0x90 /usr/lib/gcc/arm-none-eabi/10.3.1/../../../arm-none-eabi/lib/thumb/v7e-m+fp/hard/libg.a(lib_a-putc.o)
 .debug_ranges  0x0000000000001b88      0x188 /usr/lib/gcc/arm-none-eabi/10.3.1/../../../arm-none-eabi/lib/thumb/v7e-m+fp/hard/libg.a(lib_a-reallocr.o)
 .debug_ranges  0x0000000000001d10      0x1d8 /usr/lib/gcc/arm-none-eabi/10.3.1/../../../arm-none-eabi/lib/thumb/v7e-m+fp/hard/libg.a(lib_a-vfiprintf.o)
 .debug_ranges  0x0000000000001ee8       0x20 /usr/lib/gcc/arm-none-eabi/10.3.1/../../../arm-none-eabi/lib/thumb/v7e-m+fp/hard/libg.a(lib_a-wbuf.o)
 .debug_ranges  0x0000000000001f08       0x48 /usr/lib/gcc/arm-none-eabi/10.3.1/../../../arm-none-eabi/lib/thumb/v7e-m+fp/hard/libg.a(lib_a-callocr.o)
 .debug_ranges  0x0000000000001f50       0x60 /usr/lib/gcc/arm-none-eabi/10.3.1/../../../arm-none-eabi/lib/thumb/v7e-m+fp/hard/libg.a(lib_a-fclose.o)
 .debug_ranges  0x0000000000001fb0       0x50 /usr/lib/gcc/arm-none-eabi/10.3.1/../../../arm-none-eabi/lib/thumb/v7e-m+fp/hard/libg.a(lib_a-fputwc.o)
 .debug_ranges  0x0000000000002000       0x28 /usr/lib/gcc/arm-none-eabi/10.3.1/../../../arm-none-eabi/lib/thumb/v7e-m+fp/hard/libg.a(lib_a-locale.o)
 .debug_ranges  0x0000000000002028       0x10 /usr/lib/gcc/arm-none-eabi/10.3.1/../../../arm-none-eabi/lib/thumb/v7e-m+fp/hard/libg.a(lib_a-wcrtomb.o)
 .debug_ranges  0x0000000000002038       0xc8 /usr/lib/gcc/arm-none-eabi/10.3.1/../../../arm-none-eabi/lib/thumb/v7e-m+fp/hard/libg.a(lib_a-signal.o)
 .debug_ranges  0x0000000000002100       0x18 /usr/lib/gcc/arm-none-eabi/10.3.1/../../../arm-none-eabi/lib/thumb/v7e-m+fp/hard/libg.a(lib_a-reent.o)
 .debug_ranges  0x0000000000002118       0xe8 /usr/lib/gcc/arm-none-eabi/10.3.1/thumb/v7e-m+fp/hard/libgcc.a(_udivmoddi4.o)

.debug_line     0x0000000000000000    0x1c248
 .debug_line    0x0000000000000000      0x3f6 build/main.o
 .debug_line    0x00000000000003f6       0x56 build/mycode.o
 .debug_line    0x000000000000044c       0xa9 build/mytest.o
 .debug_line    0x00000000000004f5      0x12b build/mes/pt_hook.o
 .debug_line    0x0000000000000620       0x55 build/mes/pt_asm.o
 .debug_line    0x0000000000000675       0xe7 build/monitor.o
 .debug_line    0x000000000000075c      0x418 build/parser.o
 .debug_line    0x0000000000000b74      0x1e7 build/dump.o
 .debug_line    0x0000000000000d5b      0x1f3 build/syscall.o
 .debug_line    0x0000000000000f4e      0x724 build/terminal.o
 .debug_line    0x0000000000001672      0x71b build/decoder/decoder.o
 .debug_line    0x0000000000001d8d       0x9e build/decoder/STM32F30x_decoder.o
 .debug_line    0x0000000000001e2b      0x210 build/Drivers/CMSIS/Device/ST/STM32F3xx/Source/Templates/system_stm32f3xx.o
 .debug_line    0x000000000000203b     0x1817 build/Drivers/STM32F3xx_HAL_Driver/Src/stm32f3xx_hal_rcc.o
 .debug_line    0x0000000000003852      0x37b build/Drivers/STM32F3xx_HAL_Driver/Src/stm32f3xx_hal.o
 .debug_line    0x0000000000003bcd      0x581 build/Drivers/STM32F3xx_HAL_Driver/Src/stm32f3xx_hal_cortex.o
 .debug_line    0x000000000000414e      0x614 build/Drivers/STM32F3xx_HAL_Driver/Src/stm32f3xx_hal_gpio.o
 .debug_line    0x0000000000004762     0x10de build/Drivers/STM32F3xx_HAL_Driver/Src/stm32f3xx_hal_pcd.o
 .debug_line    0x0000000000005840      0x29a build/Drivers/STM32F3xx_HAL_Driver/Src/stm32f3xx_hal_pcd_ex.o
 .debug_line    0x0000000000005ada     0x2b3c build/Drivers/STM32F3xx_HAL_Driver/Src/stm32f3xx_hal_i2c.o
 .debug_line    0x0000000000008616     0x2097 build/Drivers/STM32F3xx_HAL_Driver/Src/stm32f3xx_hal_spi.o
 .debug_line    0x000000000000a6ad      0x550 build/Drivers/STM32_USB_Device_Library/Core/Src/usbd_core.o
 .debug_line    0x000000000000abfd      0x5f2 build/Drivers/STM32_USB_Device_Library/Core/Src/usbd_ctlreq.o
 .debug_line    0x000000000000b1ef      0x1ed build/Drivers/STM32_USB_Device_Library/Core/Src/usbd_ioreq.o
 .debug_line    0x000000000000b3dc      0x4f6 build/Drivers/STM32_USB_Device_Library/Class/CDC/Src/usbd_cdc.o
 .debug_line    0x000000000000b8d2      0x588 build/usbd_conf.o
 .debug_line    0x000000000000be5a      0x26e build/usbd_desc.o
 .debug_line    0x000000000000c0c8      0x298 build/usbd_cdc_interface.o
 .debug_line    0x000000000000c360      0x6fc build/Drivers/BSP/STM32F3-Discovery/stm32f3_discovery.o
 .debug_line    0x000000000000ca5c      0x24f build/Drivers/BSP/STM32F3-Discovery/stm32f3_discovery_accelerometer.o
 .debug_line    0x000000000000ccab      0x327 build/Drivers/BSP/STM32F3-Discovery/stm32f3_discovery_gyroscope.o
 .debug_line    0x000000000000cfd2      0x572 build/Drivers/BSP/Components/lsm303dlhc/lsm303dlhc.o
 .debug_line    0x000000000000d544      0x403 build/Drivers/BSP/Components/l3gd20/l3gd20.o
 .debug_line    0x000000000000d947      0x40f build/Drivers/BSP/Components/i3g4250d/i3g4250d.o
 .debug_line    0x000000000000dd56      0x56e build/Drivers/BSP/Components/lsm303agr/lsm303agr.o
 .debug_line    0x000000000000e2c4       0xab build/Drivers/CMSIS/Device/ST/STM32F3xx/Source/Templates/gcc/startup_stm32f303xc.o
 .debug_line    0x000000000000e36f       0xc0 /usr/lib/gcc/arm-none-eabi/10.3.1/../../../arm-none-eabi/lib/thumb/v7e-m+fp/hard/libg.a(lib_a-atexit.o)
 .debug_line    0x000000000000e42f       0x5e /usr/lib/gcc/arm-none-eabi/10.3.1/../../../arm-none-eabi/lib/thumb/v7e-m+fp/hard/libg.a(lib_a-ctype_.o)
 .debug_line    0x000000000000e48d      0x109 /usr/lib/gcc/arm-none-eabi/10.3.1/../../../arm-none-eabi/lib/thumb/v7e-m+fp/hard/libg.a(lib_a-errno.o)
 .debug_line    0x000000000000e596       0xed /usr/lib/gcc/arm-none-eabi/10.3.1/../../../arm-none-eabi/lib/thumb/v7e-m+fp/hard/libg.a(lib_a-fini.o)
 .debug_line    0x000000000000e683       0xe4 /usr/lib/gcc/arm-none-eabi/10.3.1/../../../arm-none-eabi/lib/thumb/v7e-m+fp/hard/libg.a(lib_a-impure.o)
 .debug_line    0x000000000000e767      0x138 /usr/lib/gcc/arm-none-eabi/10.3.1/../../../arm-none-eabi/lib/thumb/v7e-m+fp/hard/libg.a(lib_a-init.o)
 .debug_line    0x000000000000e89f      0x1bf /usr/lib/gcc/arm-none-eabi/10.3.1/../../../arm-none-eabi/lib/thumb/v7e-m+fp/hard/libg.a(lib_a-memset.o)
 .debug_line    0x000000000000ea5e      0x1b9 /usr/lib/gcc/arm-none-eabi/10.3.1/../../../arm-none-eabi/lib/thumb/v7e-m+fp/hard/libg.a(lib_a-printf.o)
 .debug_line    0x000000000000ec17      0x167 /usr/lib/gcc/arm-none-eabi/10.3.1/../../../arm-none-eabi/lib/thumb/v7e-m+fp/hard/libg.a(lib_a-putchar.o)
 .debug_line    0x000000000000ed7e      0x23b /usr/lib/gcc/arm-none-eabi/10.3.1/../../../arm-none-eabi/lib/thumb/v7e-m+fp/hard/libg.a(lib_a-puts.o)
 .debug_line    0x000000000000efb9      0x389 /usr/lib/gcc/arm-none-eabi/10.3.1/../../../arm-none-eabi/lib/thumb/v7e-m+fp/hard/libg.a(lib_a-setvbuf.o)
 .debug_line    0x000000000000f342      0x129 /usr/lib/gcc/arm-none-eabi/10.3.1/../../../arm-none-eabi/lib/thumb/v7e-m+fp/hard/libg.a(lib_a-strcasecmp.o)
 .debug_line    0x000000000000f46b       0xb9 /usr/lib/gcc/arm-none-eabi/10.3.1/../../../arm-none-eabi/lib/thumb/v7e-m+fp/hard/libg.a(lib_a-strcpy.o)
 .debug_line    0x000000000000f524       0xaf /usr/lib/gcc/arm-none-eabi/10.3.1/../../../arm-none-eabi/lib/thumb/v7e-m+fp/hard/libg.a(lib_a-strlen.o)
 .debug_line    0x000000000000f5d3      0x14c /usr/lib/gcc/arm-none-eabi/10.3.1/../../../arm-none-eabi/lib/thumb/v7e-m+fp/hard/libg.a(lib_a-strtok.o)
 .debug_line    0x000000000000f71f      0x1b4 /usr/lib/gcc/arm-none-eabi/10.3.1/../../../arm-none-eabi/lib/thumb/v7e-m+fp/hard/libg.a(lib_a-strtok_r.o)
 .debug_line    0x000000000000f8d3      0x38f /usr/lib/gcc/arm-none-eabi/10.3.1/../../../arm-none-eabi/lib/thumb/v7e-m+fp/hard/libg.a(lib_a-strtoul.o)
 .debug_line    0x000000000000fc62     0x1877 /usr/lib/gcc/arm-none-eabi/10.3.1/../../../arm-none-eabi/lib/thumb/v7e-m+fp/hard/libg.a(lib_a-vfprintf.o)
 .debug_line    0x00000000000114d9      0x2fa /usr/lib/gcc/arm-none-eabi/10.3.1/../../../arm-none-eabi/lib/thumb/v7e-m+fp/hard/libg.a(lib_a-wsetup.o)
 .debug_line    0x00000000000117d3      0x19e /usr/lib/gcc/arm-none-eabi/10.3.1/../../../arm-none-eabi/lib/thumb/v7e-m+fp/hard/libg.a(lib_a-__atexit.o)
 .debug_line    0x0000000000011971      0x28d /usr/lib/gcc/arm-none-eabi/10.3.1/../../../arm-none-eabi/lib/thumb/v7e-m+fp/hard/libg.a(lib_a-__call_atexit.o)
 .debug_line    0x0000000000011bfe     0x14e6 /usr/lib/gcc/arm-none-eabi/10.3.1/../../../arm-none-eabi/lib/thumb/v7e-m+fp/hard/libg.a(lib_a-dtoa.o)
 .debug_line    0x00000000000130e4      0x461 /usr/lib/gcc/arm-none-eabi/10.3.1/../../../arm-none-eabi/lib/thumb/v7e-m+fp/hard/libg.a(lib_a-fflush.o)
 .debug_line    0x0000000000013545      0x555 /usr/lib/gcc/arm-none-eabi/10.3.1/../../../arm-none-eabi/lib/thumb/v7e-m+fp/hard/libg.a(lib_a-findfp.o)
 .debug_line    0x0000000000013a9a      0x4fb /usr/lib/gcc/arm-none-eabi/10.3.1/../../../arm-none-eabi/lib/thumb/v7e-m+fp/hard/libg.a(lib_a-freer.o)
 .debug_line    0x0000000000013f95      0x5e4 /usr/lib/gcc/arm-none-eabi/10.3.1/../../../arm-none-eabi/lib/thumb/v7e-m+fp/hard/libg.a(lib_a-fvwrite.o)
 .debug_line    0x0000000000014579      0x29e /usr/lib/gcc/arm-none-eabi/10.3.1/../../../arm-none-eabi/lib/thumb/v7e-m+fp/hard/libg.a(lib_a-fwalk.o)
 .debug_line    0x0000000000014817      0x1bf /usr/lib/gcc/arm-none-eabi/10.3.1/../../../arm-none-eabi/lib/thumb/v7e-m+fp/hard/libg.a(lib_a-localeconv.o)
 .debug_line    0x00000000000149d6      0x3bb /usr/lib/gcc/arm-none-eabi/10.3.1/../../../arm-none-eabi/lib/thumb/v7e-m+fp/hard/libg.a(lib_a-makebuf.o)
 .debug_line    0x0000000000014d91      0x15f /usr/lib/gcc/arm-none-eabi/10.3.1/../../../arm-none-eabi/lib/thumb/v7e-m+fp/hard/libg.a(lib_a-malloc.o)
 .debug_line    0x0000000000014ef0      0x8bc /usr/lib/gcc/arm-none-eabi/10.3.1/../../../arm-none-eabi/lib/thumb/v7e-m+fp/hard/libg.a(lib_a-mallocr.o)
 .debug_line    0x00000000000157ac       0xa4 /usr/lib/gcc/arm-none-eabi/10.3.1/../../../arm-none-eabi/lib/thumb/v7e-m+fp/hard/libg.a(lib_a-memchr.o)
 .debug_line    0x0000000000015850       0xbe /usr/lib/gcc/arm-none-eabi/10.3.1/../../../arm-none-eabi/lib/thumb/v7e-m+fp/hard/libg.a(lib_a-memcpy.o)
 .debug_line    0x000000000001590e      0x1ee /usr/lib/gcc/arm-none-eabi/10.3.1/../../../arm-none-eabi/lib/thumb/v7e-m+fp/hard/libg.a(lib_a-memmove.o)
 .debug_line    0x0000000000015afc      0x13e /usr/lib/gcc/arm-none-eabi/10.3.1/../../../arm-none-eabi/lib/thumb/v7e-m+fp/hard/libg.a(lib_a-mlock.o)
 .debug_line    0x0000000000015c3a     0x1691 /usr/lib/gcc/arm-none-eabi/10.3.1/../../../arm-none-eabi/lib/thumb/v7e-m+fp/hard/libg.a(lib_a-mprec.o)
 .debug_line    0x00000000000172cb      0x324 /usr/lib/gcc/arm-none-eabi/10.3.1/../../../arm-none-eabi/lib/thumb/v7e-m+fp/hard/libg.a(lib_a-putc.o)
 .debug_line    0x00000000000175ef      0x7c2 /usr/lib/gcc/arm-none-eabi/10.3.1/../../../arm-none-eabi/lib/thumb/v7e-m+fp/hard/libg.a(lib_a-reallocr.o)
 .debug_line    0x0000000000017db1      0x231 /usr/lib/gcc/arm-none-eabi/10.3.1/../../../arm-none-eabi/lib/thumb/v7e-m+fp/hard/libg.a(lib_a-stdio.o)
 .debug_line    0x0000000000017fe2     0x127b /usr/lib/gcc/arm-none-eabi/10.3.1/../../../arm-none-eabi/lib/thumb/v7e-m+fp/hard/libg.a(lib_a-vfiprintf.o)
 .debug_line    0x000000000001925d      0x2d5 /usr/lib/gcc/arm-none-eabi/10.3.1/../../../arm-none-eabi/lib/thumb/v7e-m+fp/hard/libg.a(lib_a-wbuf.o)
 .debug_line    0x0000000000019532      0x194 /usr/lib/gcc/arm-none-eabi/10.3.1/../../../arm-none-eabi/lib/thumb/v7e-m+fp/hard/libg.a(lib_a-assert.o)
 .debug_line    0x00000000000196c6      0x1ac /usr/lib/gcc/arm-none-eabi/10.3.1/../../../arm-none-eabi/lib/thumb/v7e-m+fp/hard/libg.a(lib_a-callocr.o)
 .debug_line    0x0000000000019872      0x2ae /usr/lib/gcc/arm-none-eabi/10.3.1/../../../arm-none-eabi/lib/thumb/v7e-m+fp/hard/libg.a(lib_a-fclose.o)
 .debug_line    0x0000000000019b20      0x19d /usr/lib/gcc/arm-none-eabi/10.3.1/../../../arm-none-eabi/lib/thumb/v7e-m+fp/hard/libg.a(lib_a-fiprintf.o)
 .debug_line    0x0000000000019cbd      0x32b /usr/lib/gcc/arm-none-eabi/10.3.1/../../../arm-none-eabi/lib/thumb/v7e-m+fp/hard/libg.a(lib_a-fputwc.o)
 .debug_line    0x0000000000019fe8      0x267 /usr/lib/gcc/arm-none-eabi/10.3.1/../../../arm-none-eabi/lib/thumb/v7e-m+fp/hard/libg.a(lib_a-locale.o)
 .debug_line    0x000000000001a24f      0x213 /usr/lib/gcc/arm-none-eabi/10.3.1/../../../arm-none-eabi/lib/thumb/v7e-m+fp/hard/libg.a(lib_a-mbtowc_r.o)
 .debug_line    0x000000000001a462      0x137 /usr/lib/gcc/arm-none-eabi/10.3.1/../../../arm-none-eabi/lib/thumb/v7e-m+fp/hard/libg.a(lib_a-strcmp.o)
 .debug_line    0x000000000001a599      0x299 /usr/lib/gcc/arm-none-eabi/10.3.1/../../../arm-none-eabi/lib/thumb/v7e-m+fp/hard/libg.a(lib_a-wcrtomb.o)
 .debug_line    0x000000000001a832      0x1fd /usr/lib/gcc/arm-none-eabi/10.3.1/../../../arm-none-eabi/lib/thumb/v7e-m+fp/hard/libg.a(lib_a-wctomb_r.o)
 .debug_line    0x000000000001aa2f      0x109 /usr/lib/gcc/arm-none-eabi/10.3.1/../../../arm-none-eabi/lib/thumb/v7e-m+fp/hard/libg.a(lib_a-abort.o)
 .debug_line    0x000000000001ab38      0x652 /usr/lib/gcc/arm-none-eabi/10.3.1/../../../arm-none-eabi/lib/thumb/v7e-m+fp/hard/libg.a(lib_a-signal.o)
 .debug_line    0x000000000001b18a      0x1aa /usr/lib/gcc/arm-none-eabi/10.3.1/../../../arm-none-eabi/lib/thumb/v7e-m+fp/hard/libg.a(lib_a-signalr.o)
 .debug_line    0x000000000001b334      0x28d /usr/lib/gcc/arm-none-eabi/10.3.1/../../../arm-none-eabi/lib/thumb/v7e-m+fp/hard/libg.a(lib_a-reent.o)
 .debug_line    0x000000000001b5c1      0x186 /usr/lib/gcc/arm-none-eabi/10.3.1/thumb/v7e-m+fp/hard/libgcc.a(_arm_addsubdf3.o)
 .debug_line    0x000000000001b747      0x19b /usr/lib/gcc/arm-none-eabi/10.3.1/thumb/v7e-m+fp/hard/libgcc.a(_arm_muldivdf3.o)
 .debug_line    0x000000000001b8e2       0xbd /usr/lib/gcc/arm-none-eabi/10.3.1/thumb/v7e-m+fp/hard/libgcc.a(_arm_cmpdf2.o)
 .debug_line    0x000000000001b99f       0x6e /usr/lib/gcc/arm-none-eabi/10.3.1/thumb/v7e-m+fp/hard/libgcc.a(_arm_unorddf2.o)
 .debug_line    0x000000000001ba0d       0x79 /usr/lib/gcc/arm-none-eabi/10.3.1/thumb/v7e-m+fp/hard/libgcc.a(_arm_fixdfsi.o)
 .debug_line    0x000000000001ba86       0x60 /usr/lib/gcc/arm-none-eabi/10.3.1/thumb/v7e-m+fp/hard/libgcc.a(_aeabi_uldivmod.o)
 .debug_line    0x000000000001bae6      0x5ae /usr/lib/gcc/arm-none-eabi/10.3.1/thumb/v7e-m+fp/hard/libgcc.a(_udivmoddi4.o)
 .debug_line    0x000000000001c094       0x60 /usr/lib/gcc/arm-none-eabi/10.3.1/thumb/v7e-m+fp/hard/libgcc.a(_dvmd_tls.o)
 .debug_line    0x000000000001c0f4       0x70 /usr/lib/gcc/arm-none-eabi/10.3.1/../../../arm-none-eabi/lib/thumb/v7e-m+fp/hard/libnosys.a(getpid.o)
 .debug_line    0x000000000001c164       0x6f /usr/lib/gcc/arm-none-eabi/10.3.1/../../../arm-none-eabi/lib/thumb/v7e-m+fp/hard/libnosys.a(kill.o)
 .debug_line    0x000000000001c1d3       0x75 /usr/lib/gcc/arm-none-eabi/10.3.1/../../../arm-none-eabi/lib/thumb/v7e-m+fp/hard/libnosys.a(_exit.o)

.debug_str      0x0000000000000000     0x9d56
 .debug_str     0x0000000000000000      0x559 build/main.o
                                        0x5d1 (size before relaxing)
 .debug_str     0x0000000000000559       0x15 build/mycode.o
                                         0x41 (size before relaxing)
 .debug_str     0x000000000000056e       0x21 build/mytest.o
                                        0x1cc (size before relaxing)
 .debug_str     0x000000000000058f       0x3b build/mes/pt_hook.o
                                        0x20b (size before relaxing)
 .debug_str     0x00000000000005ca        0xd build/mes/pt_asm.o
                                         0x45 (size before relaxing)
 .debug_str     0x00000000000005d7       0x20 build/monitor.o
                                        0x1d9 (size before relaxing)
 .debug_str     0x00000000000005f7       0xe6 build/parser.o
                                        0x2b6 (size before relaxing)
 .debug_str     0x00000000000006dd       0x28 build/dump.o
                                        0x227 (size before relaxing)
 .debug_str     0x0000000000000705      0x4b8 build/syscall.o
                                        0x6e2 (size before relaxing)
 .debug_str     0x0000000000000bbd      0x83e build/terminal.o
                                        0xec0 (size before relaxing)
 .debug_str     0x00000000000013fb      0x13e build/decoder/decoder.o
                                        0x3c8 (size before relaxing)
 .debug_str     0x0000000000001539     0x275a build/decoder/STM32F30x_decoder.o
                                       0x2994 (size before relaxing)
 .debug_str     0x0000000000003c93      0x138 build/Drivers/CMSIS/Device/ST/STM32F3xx/Source/Templates/system_stm32f3xx.o
                                        0x2cc (size before relaxing)
 .debug_str     0x0000000000003dcb      0x29f build/Drivers/STM32F3xx_HAL_Driver/Src/stm32f3xx_hal_rcc.o
                                        0x60a (size before relaxing)
 .debug_str     0x000000000000406a      0x5f7 build/Drivers/STM32F3xx_HAL_Driver/Src/stm32f3xx_hal.o
                                        0x86c (size before relaxing)
 .debug_str     0x0000000000004661      0x252 build/Drivers/STM32F3xx_HAL_Driver/Src/stm32f3xx_hal_cortex.o
                                        0x9de (size before relaxing)
 .debug_str     0x00000000000048b3      0x170 build/Drivers/STM32F3xx_HAL_Driver/Src/stm32f3xx_hal_gpio.o
                                        0x41b (size before relaxing)
 .debug_str     0x0000000000004a23      0x3a7 build/Drivers/STM32F3xx_HAL_Driver/Src/stm32f3xx_hal_pcd.o
                                        0x7ff (size before relaxing)
 .debug_str     0x0000000000004dca       0x89 build/Drivers/STM32F3xx_HAL_Driver/Src/stm32f3xx_hal_pcd_ex.o
                                        0x4fe (size before relaxing)
 .debug_str     0x0000000000004e53      0x973 build/Drivers/STM32F3xx_HAL_Driver/Src/stm32f3xx_hal_i2c.o
                                        0xbeb (size before relaxing)
 .debug_str     0x00000000000057c6      0x62d build/Drivers/STM32F3xx_HAL_Driver/Src/stm32f3xx_hal_spi.o
                                        0xa2c (size before relaxing)
 .debug_str     0x0000000000005df3      0x28b build/Drivers/STM32_USB_Device_Library/Core/Src/usbd_core.o
                                        0x7e3 (size before relaxing)
 .debug_str     0x000000000000607e      0x130 build/Drivers/STM32_USB_Device_Library/Core/Src/usbd_ctlreq.o
                                        0x714 (size before relaxing)
 .debug_str     0x00000000000061ae       0x97 build/Drivers/STM32_USB_Device_Library/Core/Src/usbd_ioreq.o
                                        0x641 (size before relaxing)
 .debug_str     0x0000000000006245      0x213 build/Drivers/STM32_USB_Device_Library/Class/CDC/Src/usbd_cdc.o
                                        0x871 (size before relaxing)
 .debug_str     0x0000000000006458       0x3a build/usbd_conf.o
                                       0x1133 (size before relaxing)
 .debug_str     0x0000000000006492      0x162 build/usbd_desc.o
                                        0x41f (size before relaxing)
 .debug_str     0x00000000000065f4      0x535 build/usbd_cdc_interface.o
                                        0xd4e (size before relaxing)
 .debug_str     0x0000000000006b29      0x247 build/Drivers/BSP/STM32F3-Discovery/stm32f3_discovery.o
                                       0x1249 (size before relaxing)
 .debug_str     0x0000000000006d70      0x226 build/Drivers/BSP/STM32F3-Discovery/stm32f3_discovery_accelerometer.o
                                        0x44a (size before relaxing)
 .debug_str     0x0000000000006f96      0x198 build/Drivers/BSP/STM32F3-Discovery/stm32f3_discovery_gyroscope.o
                                        0x451 (size before relaxing)
 .debug_str     0x000000000000712e      0x2b4 build/Drivers/BSP/Components/lsm303dlhc/lsm303dlhc.o
                                        0x552 (size before relaxing)
 .debug_str     0x00000000000073e2      0x127 build/Drivers/BSP/Components/l3gd20/l3gd20.o
                                        0x3ae (size before relaxing)
 .debug_str     0x0000000000007509      0x118 build/Drivers/BSP/Components/i3g4250d/i3g4250d.o
                                        0x3cb (size before relaxing)
 .debug_str     0x0000000000007621      0x241 build/Drivers/BSP/Components/lsm303agr/lsm303agr.o
                                        0x558 (size before relaxing)
 .debug_str     0x0000000000007862       0x4d build/Drivers/CMSIS/Device/ST/STM32F3xx/Source/Templates/gcc/startup_stm32f303xc.o
                                         0x85 (size before relaxing)
 .debug_str     0x00000000000078af      0x154 /usr/lib/gcc/arm-none-eabi/10.3.1/../../../arm-none-eabi/lib/thumb/v7e-m+fp/hard/libg.a(lib_a-atexit.o)
                                        0x1e4 (size before relaxing)
 .debug_str     0x0000000000007a03       0x8f /usr/lib/gcc/arm-none-eabi/10.3.1/../../../arm-none-eabi/lib/thumb/v7e-m+fp/hard/libg.a(lib_a-ctype_.o)
                                        0x19f (size before relaxing)
 .debug_str     0x0000000000007a92       0x8e /usr/lib/gcc/arm-none-eabi/10.3.1/../../../arm-none-eabi/lib/thumb/v7e-m+fp/hard/libg.a(lib_a-errno.o)
                                        0x56a (size before relaxing)
 .debug_str     0x0000000000007b20       0xc1 /usr/lib/gcc/arm-none-eabi/10.3.1/../../../arm-none-eabi/lib/thumb/v7e-m+fp/hard/libg.a(lib_a-fini.o)
                                        0x1dc (size before relaxing)
 .debug_str     0x0000000000007be1       0xae /usr/lib/gcc/arm-none-eabi/10.3.1/../../../arm-none-eabi/lib/thumb/v7e-m+fp/hard/libg.a(lib_a-impure.o)
                                        0x582 (size before relaxing)
 .debug_str     0x0000000000007c8f       0x90 /usr/lib/gcc/arm-none-eabi/10.3.1/../../../arm-none-eabi/lib/thumb/v7e-m+fp/hard/libg.a(lib_a-init.o)
                                        0x206 (size before relaxing)
 .debug_str     0x0000000000007d1f       0x9e /usr/lib/gcc/arm-none-eabi/10.3.1/../../../arm-none-eabi/lib/thumb/v7e-m+fp/hard/libg.a(lib_a-memset.o)
                                        0x1bb (size before relaxing)
 .debug_str     0x0000000000007dbd       0xc3 /usr/lib/gcc/arm-none-eabi/10.3.1/../../../arm-none-eabi/lib/thumb/v7e-m+fp/hard/libg.a(lib_a-printf.o)
                                        0x5a6 (size before relaxing)
 .debug_str     0x0000000000007e80       0x47 /usr/lib/gcc/arm-none-eabi/10.3.1/../../../arm-none-eabi/lib/thumb/v7e-m+fp/hard/libg.a(lib_a-putchar.o)
                                        0x585 (size before relaxing)
 .debug_str     0x0000000000007ec7       0x9a /usr/lib/gcc/arm-none-eabi/10.3.1/../../../arm-none-eabi/lib/thumb/v7e-m+fp/hard/libg.a(lib_a-puts.o)
                                        0x5e9 (size before relaxing)
 .debug_str     0x0000000000007f61       0x62 /usr/lib/gcc/arm-none-eabi/10.3.1/../../../arm-none-eabi/lib/thumb/v7e-m+fp/hard/libg.a(lib_a-setvbuf.o)
                                        0x5d5 (size before relaxing)
 .debug_str     0x0000000000007fc3       0x38 /usr/lib/gcc/arm-none-eabi/10.3.1/../../../arm-none-eabi/lib/thumb/v7e-m+fp/hard/libg.a(lib_a-strcasecmp.o)
                                        0x1b0 (size before relaxing)
 .debug_str     0x0000000000007ffb       0x9e /usr/lib/gcc/arm-none-eabi/10.3.1/../../../arm-none-eabi/lib/thumb/v7e-m+fp/hard/libg.a(lib_a-strcpy.o)
                                        0x1ad (size before relaxing)
 .debug_str     0x0000000000008099       0x4e /usr/lib/gcc/arm-none-eabi/10.3.1/../../../arm-none-eabi/lib/thumb/v7e-m+fp/hard/libg.a(lib_a-strlen.o)
                                         0xb0 (size before relaxing)
 .debug_str     0x00000000000080e7       0x3f /usr/lib/gcc/arm-none-eabi/10.3.1/../../../arm-none-eabi/lib/thumb/v7e-m+fp/hard/libg.a(lib_a-strtok.o)
                                        0x583 (size before relaxing)
 .debug_str     0x0000000000008126       0x5a /usr/lib/gcc/arm-none-eabi/10.3.1/../../../arm-none-eabi/lib/thumb/v7e-m+fp/hard/libg.a(lib_a-strtok_r.o)
                                        0x1d9 (size before relaxing)
 .debug_str     0x0000000000008180      0x1cf /usr/lib/gcc/arm-none-eabi/10.3.1/../../../arm-none-eabi/lib/thumb/v7e-m+fp/hard/libg.a(lib_a-strtoul.o)
                                        0x7da (size before relaxing)
 .debug_str     0x000000000000834f      0x1da /usr/lib/gcc/arm-none-eabi/10.3.1/../../../arm-none-eabi/lib/thumb/v7e-m+fp/hard/libg.a(lib_a-vfprintf.o)
                                        0x9f0 (size before relaxing)
 .debug_str     0x0000000000008529       0x40 /usr/lib/gcc/arm-none-eabi/10.3.1/../../../arm-none-eabi/lib/thumb/v7e-m+fp/hard/libg.a(lib_a-wsetup.o)
                                        0x5a1 (size before relaxing)
 .debug_str     0x0000000000008569       0x36 /usr/lib/gcc/arm-none-eabi/10.3.1/../../../arm-none-eabi/lib/thumb/v7e-m+fp/hard/libg.a(lib_a-__atexit.o)
                                        0x5bc (size before relaxing)
 .debug_str     0x000000000000859f       0x8d /usr/lib/gcc/arm-none-eabi/10.3.1/../../../arm-none-eabi/lib/thumb/v7e-m+fp/hard/libg.a(lib_a-__call_atexit.o)
                                        0x5e8 (size before relaxing)
 .debug_str     0x000000000000862c      0x1d4 /usr/lib/gcc/arm-none-eabi/10.3.1/../../../arm-none-eabi/lib/thumb/v7e-m+fp/hard/libg.a(lib_a-dtoa.o)
                                        0x949 (size before relaxing)
 .debug_str     0x0000000000008800       0x63 /usr/lib/gcc/arm-none-eabi/10.3.1/../../../arm-none-eabi/lib/thumb/v7e-m+fp/hard/libg.a(lib_a-fflush.o)
                                        0x5e2 (size before relaxing)
 .debug_str     0x0000000000008863      0x159 /usr/lib/gcc/arm-none-eabi/10.3.1/../../../arm-none-eabi/lib/thumb/v7e-m+fp/hard/libg.a(lib_a-findfp.o)
                                        0x6d6 (size before relaxing)
 .debug_str     0x00000000000089bc      0x16a /usr/lib/gcc/arm-none-eabi/10.3.1/../../../arm-none-eabi/lib/thumb/v7e-m+fp/hard/libg.a(lib_a-freer.o)
                                        0x6d1 (size before relaxing)
 .debug_str     0x0000000000008b26       0x65 /usr/lib/gcc/arm-none-eabi/10.3.1/../../../arm-none-eabi/lib/thumb/v7e-m+fp/hard/libg.a(lib_a-fvwrite.o)
                                        0x614 (size before relaxing)
 .debug_str     0x0000000000008b8b       0x41 /usr/lib/gcc/arm-none-eabi/10.3.1/../../../arm-none-eabi/lib/thumb/v7e-m+fp/hard/libg.a(lib_a-fwalk.o)
                                        0x587 (size before relaxing)
 .debug_str     0x0000000000008bcc       0xbe /usr/lib/gcc/arm-none-eabi/10.3.1/../../../arm-none-eabi/lib/thumb/v7e-m+fp/hard/libg.a(lib_a-localeconv.o)
                                        0x7b7 (size before relaxing)
 .debug_str     0x0000000000008c8a       0x4c /usr/lib/gcc/arm-none-eabi/10.3.1/../../../arm-none-eabi/lib/thumb/v7e-m+fp/hard/libg.a(lib_a-makebuf.o)
                                        0x703 (size before relaxing)
 .debug_str     0x0000000000008cd6       0x40 /usr/lib/gcc/arm-none-eabi/10.3.1/../../../arm-none-eabi/lib/thumb/v7e-m+fp/hard/libg.a(lib_a-malloc.o)
                                        0x596 (size before relaxing)
 .debug_str     0x0000000000008d16       0xdf /usr/lib/gcc/arm-none-eabi/10.3.1/../../../arm-none-eabi/lib/thumb/v7e-m+fp/hard/libg.a(lib_a-mallocr.o)
                                        0x787 (size before relaxing)
 .debug_str     0x0000000000008df5       0x3c /usr/lib/gcc/arm-none-eabi/10.3.1/../../../arm-none-eabi/lib/thumb/v7e-m+fp/hard/libg.a(lib_a-memchr.o)
                                         0xaa (size before relaxing)
 .debug_str     0x0000000000008e31       0x43 /usr/lib/gcc/arm-none-eabi/10.3.1/../../../arm-none-eabi/lib/thumb/v7e-m+fp/hard/libg.a(lib_a-memcpy.o)
                                         0xb1 (size before relaxing)
 .debug_str     0x0000000000008e74       0x5f /usr/lib/gcc/arm-none-eabi/10.3.1/../../../arm-none-eabi/lib/thumb/v7e-m+fp/hard/libg.a(lib_a-memmove.o)
                                        0x1da (size before relaxing)
 .debug_str     0x0000000000008ed3       0x4c /usr/lib/gcc/arm-none-eabi/10.3.1/../../../arm-none-eabi/lib/thumb/v7e-m+fp/hard/libg.a(lib_a-mlock.o)
                                        0x58f (size before relaxing)
 .debug_str     0x0000000000008f1f       0x9e /usr/lib/gcc/arm-none-eabi/10.3.1/../../../arm-none-eabi/lib/thumb/v7e-m+fp/hard/libg.a(lib_a-mprec.o)
                                        0x887 (size before relaxing)
 .debug_str     0x0000000000008fbd       0x4a /usr/lib/gcc/arm-none-eabi/10.3.1/../../../arm-none-eabi/lib/thumb/v7e-m+fp/hard/libg.a(lib_a-putc.o)
                                        0x5b1 (size before relaxing)
 .debug_str     0x0000000000009007       0x4e /usr/lib/gcc/arm-none-eabi/10.3.1/../../../arm-none-eabi/lib/thumb/v7e-m+fp/hard/libg.a(lib_a-reallocr.o)
                                        0x663 (size before relaxing)
 .debug_str     0x0000000000009055       0x6f /usr/lib/gcc/arm-none-eabi/10.3.1/../../../arm-none-eabi/lib/thumb/v7e-m+fp/hard/libg.a(lib_a-stdio.o)
                                        0x5d6 (size before relaxing)
 .debug_str     0x00000000000090c4       0x21 /usr/lib/gcc/arm-none-eabi/10.3.1/../../../arm-none-eabi/lib/thumb/v7e-m+fp/hard/libg.a(lib_a-vfiprintf.o)
                                        0x91c (size before relaxing)
 .debug_str     0x00000000000090e5       0x39 /usr/lib/gcc/arm-none-eabi/10.3.1/../../../arm-none-eabi/lib/thumb/v7e-m+fp/hard/libg.a(lib_a-wbuf.o)
                                        0x5a6 (size before relaxing)
 .debug_str     0x000000000000911e       0x53 /usr/lib/gcc/arm-none-eabi/10.3.1/../../../arm-none-eabi/lib/thumb/v7e-m+fp/hard/libg.a(lib_a-assert.o)
                                        0x5a5 (size before relaxing)
 .debug_str     0x0000000000009171        0xf /usr/lib/gcc/arm-none-eabi/10.3.1/../../../arm-none-eabi/lib/thumb/v7e-m+fp/hard/libg.a(lib_a-callocr.o)
                                        0x5bb (size before relaxing)
 .debug_str     0x0000000000009180       0x44 /usr/lib/gcc/arm-none-eabi/10.3.1/../../../arm-none-eabi/lib/thumb/v7e-m+fp/hard/libg.a(lib_a-fclose.o)
                                        0x5cf (size before relaxing)
 .debug_str     0x00000000000091c4       0x41 /usr/lib/gcc/arm-none-eabi/10.3.1/../../../arm-none-eabi/lib/thumb/v7e-m+fp/hard/libg.a(lib_a-fiprintf.o)
                                        0x5b2 (size before relaxing)
 .debug_str     0x0000000000009205       0x5b /usr/lib/gcc/arm-none-eabi/10.3.1/../../../arm-none-eabi/lib/thumb/v7e-m+fp/hard/libg.a(lib_a-fputwc.o)
                                        0x5e7 (size before relaxing)
 .debug_str     0x0000000000009260       0x67 /usr/lib/gcc/arm-none-eabi/10.3.1/../../../arm-none-eabi/lib/thumb/v7e-m+fp/hard/libg.a(lib_a-locale.o)
                                        0x7d2 (size before relaxing)
 .debug_str     0x00000000000092c7       0x55 /usr/lib/gcc/arm-none-eabi/10.3.1/../../../arm-none-eabi/lib/thumb/v7e-m+fp/hard/libg.a(lib_a-mbtowc_r.o)
                                        0x797 (size before relaxing)
 .debug_str     0x000000000000931c       0x42 /usr/lib/gcc/arm-none-eabi/10.3.1/../../../arm-none-eabi/lib/thumb/v7e-m+fp/hard/libg.a(lib_a-strcmp.o)
                                         0xb0 (size before relaxing)
 .debug_str     0x000000000000935e       0x44 /usr/lib/gcc/arm-none-eabi/10.3.1/../../../arm-none-eabi/lib/thumb/v7e-m+fp/hard/libg.a(lib_a-wcrtomb.o)
                                        0x79d (size before relaxing)
 .debug_str     0x00000000000093a2       0x56 /usr/lib/gcc/arm-none-eabi/10.3.1/../../../arm-none-eabi/lib/thumb/v7e-m+fp/hard/libg.a(lib_a-wctomb_r.o)
                                        0x79e (size before relaxing)
 .debug_str     0x00000000000093f8       0x3f /usr/lib/gcc/arm-none-eabi/10.3.1/../../../arm-none-eabi/lib/thumb/v7e-m+fp/hard/libg.a(lib_a-abort.o)
                                        0x1aa (size before relaxing)
 .debug_str     0x0000000000009437       0xf7 /usr/lib/gcc/arm-none-eabi/10.3.1/../../../arm-none-eabi/lib/thumb/v7e-m+fp/hard/libg.a(lib_a-signal.o)
                                        0x5f1 (size before relaxing)
 .debug_str     0x000000000000952e       0x42 /usr/lib/gcc/arm-none-eabi/10.3.1/../../../arm-none-eabi/lib/thumb/v7e-m+fp/hard/libg.a(lib_a-signalr.o)
                                        0x57e (size before relaxing)
 .debug_str     0x0000000000009570       0x5e /usr/lib/gcc/arm-none-eabi/10.3.1/../../../arm-none-eabi/lib/thumb/v7e-m+fp/hard/libg.a(lib_a-reent.o)
                                        0x5a1 (size before relaxing)
 .debug_str     0x00000000000095ce       0x9f /usr/lib/gcc/arm-none-eabi/10.3.1/thumb/v7e-m+fp/hard/libgcc.a(_arm_addsubdf3.o)
                                         0xab (size before relaxing)
 .debug_str     0x000000000000966d       0xab /usr/lib/gcc/arm-none-eabi/10.3.1/thumb/v7e-m+fp/hard/libgcc.a(_arm_muldivdf3.o)
 .debug_str     0x000000000000966d       0xab /usr/lib/gcc/arm-none-eabi/10.3.1/thumb/v7e-m+fp/hard/libgcc.a(_arm_cmpdf2.o)
 .debug_str     0x000000000000966d       0xab /usr/lib/gcc/arm-none-eabi/10.3.1/thumb/v7e-m+fp/hard/libgcc.a(_arm_unorddf2.o)
 .debug_str     0x000000000000966d       0xab /usr/lib/gcc/arm-none-eabi/10.3.1/thumb/v7e-m+fp/hard/libgcc.a(_arm_fixdfsi.o)
 .debug_str     0x000000000000966d       0x2c /usr/lib/gcc/arm-none-eabi/10.3.1/thumb/v7e-m+fp/hard/libgcc.a(_aeabi_uldivmod.o)
                                         0xa6 (size before relaxing)
 .debug_str     0x0000000000009699      0x544 /usr/lib/gcc/arm-none-eabi/10.3.1/thumb/v7e-m+fp/hard/libgcc.a(_udivmoddi4.o)
                                        0x647 (size before relaxing)
 .debug_str     0x0000000000009bdd       0x30 /usr/lib/gcc/arm-none-eabi/10.3.1/thumb/v7e-m+fp/hard/libgcc.a(_dvmd_tls.o)
                                         0xaa (size before relaxing)
 .debug_str     0x0000000000009c0d       0xec /usr/lib/gcc/arm-none-eabi/10.3.1/../../../arm-none-eabi/lib/thumb/v7e-m+fp/hard/libnosys.a(getpid.o)
                                        0x18f (size before relaxing)
 .debug_str     0x0000000000009cf9       0x2e /usr/lib/gcc/arm-none-eabi/10.3.1/../../../arm-none-eabi/lib/thumb/v7e-m+fp/hard/libnosys.a(kill.o)
                                        0x18b (size before relaxing)
 .debug_str     0x0000000000009d27       0x2f /usr/lib/gcc/arm-none-eabi/10.3.1/../../../arm-none-eabi/lib/thumb/v7e-m+fp/hard/libnosys.a(_exit.o)
                                        0x181 (size before relaxing)

.debug_frame    0x0000000000000000     0x40ac
 .debug_frame   0x0000000000000000       0xcc build/main.o
 .debug_frame   0x00000000000000cc       0x38 build/mytest.o
 .debug_frame   0x0000000000000104       0x34 build/mes/pt_hook.o
 .debug_frame   0x0000000000000138       0x40 build/monitor.o
 .debug_frame   0x0000000000000178       0xa0 build/parser.o
 .debug_frame   0x0000000000000218       0x68 build/dump.o
 .debug_frame   0x0000000000000280       0x68 build/syscall.o
 .debug_frame   0x00000000000002e8      0x130 build/terminal.o
 .debug_frame   0x0000000000000418      0x14c build/decoder/decoder.o
 .debug_frame   0x0000000000000564       0x38 build/Drivers/CMSIS/Device/ST/STM32F3xx/Source/Templates/system_stm32f3xx.o
 .debug_frame   0x000000000000059c      0x14c build/Drivers/STM32F3xx_HAL_Driver/Src/stm32f3xx_hal_rcc.o
 .debug_frame   0x00000000000006e8      0x164 build/Drivers/STM32F3xx_HAL_Driver/Src/stm32f3xx_hal.o
 .debug_frame   0x000000000000084c      0x120 build/Drivers/STM32F3xx_HAL_Driver/Src/stm32f3xx_hal_cortex.o
 .debug_frame   0x000000000000096c       0xcc build/Drivers/STM32F3xx_HAL_Driver/Src/stm32f3xx_hal_gpio.o
 .debug_frame   0x0000000000000a38      0x2a0 build/Drivers/STM32F3xx_HAL_Driver/Src/stm32f3xx_hal_pcd.o
 .debug_frame   0x0000000000000cd8       0x58 build/Drivers/STM32F3xx_HAL_Driver/Src/stm32f3xx_hal_pcd_ex.o
 .debug_frame   0x0000000000000d30      0x5a4 build/Drivers/STM32F3xx_HAL_Driver/Src/stm32f3xx_hal_i2c.o
 .debug_frame   0x00000000000012d4      0x460 build/Drivers/STM32F3xx_HAL_Driver/Src/stm32f3xx_hal_spi.o
 .debug_frame   0x0000000000001734      0x1c0 build/Drivers/STM32_USB_Device_Library/Core/Src/usbd_core.o
 .debug_frame   0x00000000000018f4       0xcc build/Drivers/STM32_USB_Device_Library/Core/Src/usbd_ctlreq.o
 .debug_frame   0x00000000000019c0       0xb8 build/Drivers/STM32_USB_Device_Library/Core/Src/usbd_ioreq.o
 .debug_frame   0x0000000000001a78      0x154 build/Drivers/STM32_USB_Device_Library/Class/CDC/Src/usbd_cdc.o
 .debug_frame   0x0000000000001bcc      0x280 build/usbd_conf.o
 .debug_frame   0x0000000000001e4c       0xc4 build/usbd_desc.o
 .debug_frame   0x0000000000001f10       0x60 build/usbd_cdc_interface.o
 .debug_frame   0x0000000000001f70      0x204 build/Drivers/BSP/STM32F3-Discovery/stm32f3_discovery.o
 .debug_frame   0x0000000000002174       0x4c build/Drivers/BSP/STM32F3-Discovery/stm32f3_discovery_accelerometer.o
 .debug_frame   0x00000000000021c0       0x8c build/Drivers/BSP/STM32F3-Discovery/stm32f3_discovery_gyroscope.o
 .debug_frame   0x000000000000224c      0x240 build/Drivers/BSP/Components/lsm303dlhc/lsm303dlhc.o
 .debug_frame   0x000000000000248c      0x158 build/Drivers/BSP/Components/l3gd20/l3gd20.o
 .debug_frame   0x00000000000025e4      0x158 build/Drivers/BSP/Components/i3g4250d/i3g4250d.o
 .debug_frame   0x000000000000273c      0x240 build/Drivers/BSP/Components/lsm303agr/lsm303agr.o
 .debug_frame   0x000000000000297c       0x20 /usr/lib/gcc/arm-none-eabi/10.3.1/../../../arm-none-eabi/lib/thumb/v7e-m+fp/hard/libg.a(lib_a-atexit.o)
 .debug_frame   0x000000000000299c       0x20 /usr/lib/gcc/arm-none-eabi/10.3.1/../../../arm-none-eabi/lib/thumb/v7e-m+fp/hard/libg.a(lib_a-errno.o)
 .debug_frame   0x00000000000029bc       0x34 /usr/lib/gcc/arm-none-eabi/10.3.1/../../../arm-none-eabi/lib/thumb/v7e-m+fp/hard/libg.a(lib_a-fini.o)
 .debug_frame   0x00000000000029f0       0x2c /usr/lib/gcc/arm-none-eabi/10.3.1/../../../arm-none-eabi/lib/thumb/v7e-m+fp/hard/libg.a(lib_a-init.o)
 .debug_frame   0x0000000000002a1c       0x2c /usr/lib/gcc/arm-none-eabi/10.3.1/../../../arm-none-eabi/lib/thumb/v7e-m+fp/hard/libg.a(lib_a-memset.o)
 .debug_frame   0x0000000000002a48       0x74 /usr/lib/gcc/arm-none-eabi/10.3.1/../../../arm-none-eabi/lib/thumb/v7e-m+fp/hard/libg.a(lib_a-printf.o)
 .debug_frame   0x0000000000002abc       0x30 /usr/lib/gcc/arm-none-eabi/10.3.1/../../../arm-none-eabi/lib/thumb/v7e-m+fp/hard/libg.a(lib_a-putchar.o)
 .debug_frame   0x0000000000002aec       0x44 /usr/lib/gcc/arm-none-eabi/10.3.1/../../../arm-none-eabi/lib/thumb/v7e-m+fp/hard/libg.a(lib_a-puts.o)
 .debug_frame   0x0000000000002b30       0x50 /usr/lib/gcc/arm-none-eabi/10.3.1/../../../arm-none-eabi/lib/thumb/v7e-m+fp/hard/libg.a(lib_a-setvbuf.o)
 .debug_frame   0x0000000000002b80       0x28 /usr/lib/gcc/arm-none-eabi/10.3.1/../../../arm-none-eabi/lib/thumb/v7e-m+fp/hard/libg.a(lib_a-strcasecmp.o)
 .debug_frame   0x0000000000002ba8       0x20 /usr/lib/gcc/arm-none-eabi/10.3.1/../../../arm-none-eabi/lib/thumb/v7e-m+fp/hard/libg.a(lib_a-strcpy.o)
 .debug_frame   0x0000000000002bc8       0x20 /usr/lib/gcc/arm-none-eabi/10.3.1/../../../arm-none-eabi/lib/thumb/v7e-m+fp/hard/libg.a(lib_a-strtok.o)
 .debug_frame   0x0000000000002be8       0x50 /usr/lib/gcc/arm-none-eabi/10.3.1/../../../arm-none-eabi/lib/thumb/v7e-m+fp/hard/libg.a(lib_a-strtok_r.o)
 .debug_frame   0x0000000000002c38       0x7c /usr/lib/gcc/arm-none-eabi/10.3.1/../../../arm-none-eabi/lib/thumb/v7e-m+fp/hard/libg.a(lib_a-strtoul.o)
 .debug_frame   0x0000000000002cb4       0xc8 /usr/lib/gcc/arm-none-eabi/10.3.1/../../../arm-none-eabi/lib/thumb/v7e-m+fp/hard/libg.a(lib_a-vfprintf.o)
 .debug_frame   0x0000000000002d7c       0x2c /usr/lib/gcc/arm-none-eabi/10.3.1/../../../arm-none-eabi/lib/thumb/v7e-m+fp/hard/libg.a(lib_a-wsetup.o)
 .debug_frame   0x0000000000002da8       0x34 /usr/lib/gcc/arm-none-eabi/10.3.1/../../../arm-none-eabi/lib/thumb/v7e-m+fp/hard/libg.a(lib_a-__atexit.o)
 .debug_frame   0x0000000000002ddc       0x5c /usr/lib/gcc/arm-none-eabi/10.3.1/../../../arm-none-eabi/lib/thumb/v7e-m+fp/hard/libg.a(lib_a-__call_atexit.o)
 .debug_frame   0x0000000000002e38       0xdc /usr/lib/gcc/arm-none-eabi/10.3.1/../../../arm-none-eabi/lib/thumb/v7e-m+fp/hard/libg.a(lib_a-dtoa.o)
 .debug_frame   0x0000000000002f14       0x80 /usr/lib/gcc/arm-none-eabi/10.3.1/../../../arm-none-eabi/lib/thumb/v7e-m+fp/hard/libg.a(lib_a-fflush.o)
 .debug_frame   0x0000000000002f94      0x124 /usr/lib/gcc/arm-none-eabi/10.3.1/../../../arm-none-eabi/lib/thumb/v7e-m+fp/hard/libg.a(lib_a-findfp.o)
 .debug_frame   0x00000000000030b8       0x8c /usr/lib/gcc/arm-none-eabi/10.3.1/../../../arm-none-eabi/lib/thumb/v7e-m+fp/hard/libg.a(lib_a-freer.o)
 .debug_frame   0x0000000000003144       0x64 /usr/lib/gcc/arm-none-eabi/10.3.1/../../../arm-none-eabi/lib/thumb/v7e-m+fp/hard/libg.a(lib_a-fvwrite.o)
 .debug_frame   0x00000000000031a8       0x54 /usr/lib/gcc/arm-none-eabi/10.3.1/../../../arm-none-eabi/lib/thumb/v7e-m+fp/hard/libg.a(lib_a-fwalk.o)
 .debug_frame   0x00000000000031fc       0x40 /usr/lib/gcc/arm-none-eabi/10.3.1/../../../arm-none-eabi/lib/thumb/v7e-m+fp/hard/libg.a(lib_a-localeconv.o)
 .debug_frame   0x000000000000323c       0x70 /usr/lib/gcc/arm-none-eabi/10.3.1/../../../arm-none-eabi/lib/thumb/v7e-m+fp/hard/libg.a(lib_a-makebuf.o)
 .debug_frame   0x00000000000032ac       0x30 /usr/lib/gcc/arm-none-eabi/10.3.1/../../../arm-none-eabi/lib/thumb/v7e-m+fp/hard/libg.a(lib_a-malloc.o)
 .debug_frame   0x00000000000032dc       0x4c /usr/lib/gcc/arm-none-eabi/10.3.1/../../../arm-none-eabi/lib/thumb/v7e-m+fp/hard/libg.a(lib_a-mallocr.o)
 .debug_frame   0x0000000000003328       0x40 /usr/lib/gcc/arm-none-eabi/10.3.1/../../../arm-none-eabi/lib/thumb/v7e-m+fp/hard/libg.a(lib_a-memmove.o)
 .debug_frame   0x0000000000003368       0x30 /usr/lib/gcc/arm-none-eabi/10.3.1/../../../arm-none-eabi/lib/thumb/v7e-m+fp/hard/libg.a(lib_a-mlock.o)
 .debug_frame   0x0000000000003398      0x280 /usr/lib/gcc/arm-none-eabi/10.3.1/../../../arm-none-eabi/lib/thumb/v7e-m+fp/hard/libg.a(lib_a-mprec.o)
 .debug_frame   0x0000000000003618       0x58 /usr/lib/gcc/arm-none-eabi/10.3.1/../../../arm-none-eabi/lib/thumb/v7e-m+fp/hard/libg.a(lib_a-putc.o)
 .debug_frame   0x0000000000003670       0x48 /usr/lib/gcc/arm-none-eabi/10.3.1/../../../arm-none-eabi/lib/thumb/v7e-m+fp/hard/libg.a(lib_a-reallocr.o)
 .debug_frame   0x00000000000036b8       0x8c /usr/lib/gcc/arm-none-eabi/10.3.1/../../../arm-none-eabi/lib/thumb/v7e-m+fp/hard/libg.a(lib_a-stdio.o)
 .debug_frame   0x0000000000003744       0xdc /usr/lib/gcc/arm-none-eabi/10.3.1/../../../arm-none-eabi/lib/thumb/v7e-m+fp/hard/libg.a(lib_a-vfiprintf.o)
 .debug_frame   0x0000000000003820       0x4c /usr/lib/gcc/arm-none-eabi/10.3.1/../../../arm-none-eabi/lib/thumb/v7e-m+fp/hard/libg.a(lib_a-wbuf.o)
 .debug_frame   0x000000000000386c       0x40 /usr/lib/gcc/arm-none-eabi/10.3.1/../../../arm-none-eabi/lib/thumb/v7e-m+fp/hard/libg.a(lib_a-assert.o)
 .debug_frame   0x00000000000038ac       0x28 /usr/lib/gcc/arm-none-eabi/10.3.1/../../../arm-none-eabi/lib/thumb/v7e-m+fp/hard/libg.a(lib_a-callocr.o)
 .debug_frame   0x00000000000038d4       0x84 /usr/lib/gcc/arm-none-eabi/10.3.1/../../../arm-none-eabi/lib/thumb/v7e-m+fp/hard/libg.a(lib_a-fclose.o)
 .debug_frame   0x0000000000003958       0x70 /usr/lib/gcc/arm-none-eabi/10.3.1/../../../arm-none-eabi/lib/thumb/v7e-m+fp/hard/libg.a(lib_a-fiprintf.o)
 .debug_frame   0x00000000000039c8       0x8c /usr/lib/gcc/arm-none-eabi/10.3.1/../../../arm-none-eabi/lib/thumb/v7e-m+fp/hard/libg.a(lib_a-fputwc.o)
 .debug_frame   0x0000000000003a54       0x68 /usr/lib/gcc/arm-none-eabi/10.3.1/../../../arm-none-eabi/lib/thumb/v7e-m+fp/hard/libg.a(lib_a-locale.o)
 .debug_frame   0x0000000000003abc       0x4c /usr/lib/gcc/arm-none-eabi/10.3.1/../../../arm-none-eabi/lib/thumb/v7e-m+fp/hard/libg.a(lib_a-mbtowc_r.o)
 .debug_frame   0x0000000000003b08       0x68 /usr/lib/gcc/arm-none-eabi/10.3.1/../../../arm-none-eabi/lib/thumb/v7e-m+fp/hard/libg.a(lib_a-strcmp.o)
 .debug_frame   0x0000000000003b70       0x60 /usr/lib/gcc/arm-none-eabi/10.3.1/../../../arm-none-eabi/lib/thumb/v7e-m+fp/hard/libg.a(lib_a-wcrtomb.o)
 .debug_frame   0x0000000000003bd0       0x3c /usr/lib/gcc/arm-none-eabi/10.3.1/../../../arm-none-eabi/lib/thumb/v7e-m+fp/hard/libg.a(lib_a-wctomb_r.o)
 .debug_frame   0x0000000000003c0c       0x28 /usr/lib/gcc/arm-none-eabi/10.3.1/../../../arm-none-eabi/lib/thumb/v7e-m+fp/hard/libg.a(lib_a-abort.o)
 .debug_frame   0x0000000000003c34      0x114 /usr/lib/gcc/arm-none-eabi/10.3.1/../../../arm-none-eabi/lib/thumb/v7e-m+fp/hard/libg.a(lib_a-signal.o)
 .debug_frame   0x0000000000003d48       0x3c /usr/lib/gcc/arm-none-eabi/10.3.1/../../../arm-none-eabi/lib/thumb/v7e-m+fp/hard/libg.a(lib_a-signalr.o)
 .debug_frame   0x0000000000003d84       0x64 /usr/lib/gcc/arm-none-eabi/10.3.1/../../../arm-none-eabi/lib/thumb/v7e-m+fp/hard/libg.a(lib_a-reent.o)
 .debug_frame   0x0000000000003de8       0xac /usr/lib/gcc/arm-none-eabi/10.3.1/thumb/v7e-m+fp/hard/libgcc.a(_arm_addsubdf3.o)
 .debug_frame   0x0000000000003e94       0x50 /usr/lib/gcc/arm-none-eabi/10.3.1/thumb/v7e-m+fp/hard/libgcc.a(_arm_muldivdf3.o)
 .debug_frame   0x0000000000003ee4       0xc4 /usr/lib/gcc/arm-none-eabi/10.3.1/thumb/v7e-m+fp/hard/libgcc.a(_arm_cmpdf2.o)
 .debug_frame   0x0000000000003fa8       0x20 /usr/lib/gcc/arm-none-eabi/10.3.1/thumb/v7e-m+fp/hard/libgcc.a(_arm_unorddf2.o)
 .debug_frame   0x0000000000003fc8       0x24 /usr/lib/gcc/arm-none-eabi/10.3.1/thumb/v7e-m+fp/hard/libgcc.a(_arm_fixdfsi.o)
 .debug_frame   0x0000000000003fec       0x2c /usr/lib/gcc/arm-none-eabi/10.3.1/thumb/v7e-m+fp/hard/libgcc.a(_aeabi_uldivmod.o)
 .debug_frame   0x0000000000004018       0x34 /usr/lib/gcc/arm-none-eabi/10.3.1/thumb/v7e-m+fp/hard/libgcc.a(_udivmoddi4.o)
 .debug_frame   0x000000000000404c       0x20 /usr/lib/gcc/arm-none-eabi/10.3.1/../../../arm-none-eabi/lib/thumb/v7e-m+fp/hard/libnosys.a(getpid.o)
 .debug_frame   0x000000000000406c       0x20 /usr/lib/gcc/arm-none-eabi/10.3.1/../../../arm-none-eabi/lib/thumb/v7e-m+fp/hard/libnosys.a(kill.o)
 .debug_frame   0x000000000000408c       0x20 /usr/lib/gcc/arm-none-eabi/10.3.1/../../../arm-none-eabi/lib/thumb/v7e-m+fp/hard/libnosys.a(_exit.o)

.stab           0x0000000000000000       0x3c
 .stab          0x0000000000000000       0x24 /usr/lib/gcc/arm-none-eabi/10.3.1/../../../arm-none-eabi/lib/thumb/v7e-m+fp/hard/libnosys.a(getpid.o)
 .stab          0x0000000000000024       0x18 /usr/lib/gcc/arm-none-eabi/10.3.1/../../../arm-none-eabi/lib/thumb/v7e-m+fp/hard/libnosys.a(kill.o)
                                         0x24 (size before relaxing)

.stabstr        0x0000000000000000       0x76
 .stabstr       0x0000000000000000       0x76 /usr/lib/gcc/arm-none-eabi/10.3.1/../../../arm-none-eabi/lib/thumb/v7e-m+fp/hard/libnosys.a(getpid.o)
